ccopy_reg
_reconstructor
p1
(cvcpx.changes
Changeset
p2
c__builtin__
object
p3
NtRp4
(dp5
S'log'
p6
S'[project @ 1]\nInitial repository layout'
p7
sS'author'
p8
S'eric'
p9
sS'unidiff'
p10
NsS'tags'
p11
NsS'_Changeset__date'
p12
cdatetime
datetime
p13
(S'\x07\xd7\x01\n\x16.\n\x00\x00\x00'
cvcpx.tzinfo
_UTC
p14
(tRp15
tRp16
sS'entries'
p17
(lp18
g1
(cvcpx.changes
ChangesetEntry
p19
g3
NtRp20
(dp21
S'status'
p22
NsS'old_revision'
p23
NsS'name'
p24
Vbin
p25
sg10
NsS'new_revision'
p26
NsS'action_kind'
p27
S'ADD'
p28
sS'old_name'
p29
Nsbag1
(g19
g3
NtRp30
(dp31
g22
Nsg23
Nsg24
Vtmp
p32
sg10
Nsg26
Nsg27
g28
sg29
Nsbag1
(g19
g3
NtRp33
(dp34
g22
Nsg23
Nsg24
Vvimfiles
p35
sg10
Nsg26
Nsg27
g28
sg29
NsbasS'revision'
p36
Veric-20070110224610-ebc7bfa720c49022
p37
sb.N.ccopy_reg
_reconstructor
p1
(cvcpx.changes
Changeset
p2
c__builtin__
object
p3
NtRp4
(dp5
S'log'
p6
S'[project @ 2]\nInitial import'
p7
sS'author'
p8
S'eric'
p9
sS'unidiff'
p10
NsS'tags'
p11
NsS'_Changeset__date'
p12
cdatetime
datetime
p13
(S'\x07\xd7\x01\n\x1648\x00\x00\x00'
cvcpx.tzinfo
_UTC
p14
(tRp15
tRp16
sS'entries'
p17
(lp18
g1
(cvcpx.changes
ChangesetEntry
p19
g3
NtRp20
(dp21
S'status'
p22
NsS'old_revision'
p23
NsS'name'
p24
Vvimfiles/after
p25
sg10
NsS'new_revision'
p26
NsS'action_kind'
p27
S'ADD'
p28
sS'old_name'
p29
Nsbag1
(g19
g3
NtRp30
(dp31
g22
Nsg23
Nsg24
Vvimfiles/after/syntax
p32
sg10
Nsg26
Nsg27
g28
sg29
Nsbag1
(g19
g3
NtRp33
(dp34
g22
Nsg23
Nsg24
Vvimfiles/after/syntax/help.vim
p35
sg10
Nsg26
Nsg27
g28
sg29
Nsbag1
(g19
g3
NtRp36
(dp37
g22
Nsg23
Nsg24
Vvimfiles/backup
p38
sg10
Nsg26
Nsg27
g28
sg29
Nsbag1
(g19
g3
NtRp39
(dp40
g22
Nsg23
Nsg24
Vvimfiles/backup/html_local.vim
p41
sg10
Nsg26
Nsg27
g28
sg29
Nsbag1
(g19
g3
NtRp42
(dp43
g22
Nsg23
Nsg24
Vvimfiles/backup/xml_local.vim
p44
sg10
Nsg26
Nsg27
g28
sg29
Nsbag1
(g19
g3
NtRp45
(dp46
g22
Nsg23
Nsg24
Vvimfiles/bitmaps
p47
sg10
Nsg26
Nsg27
g28
sg29
Nsbag1
(g19
g3
NtRp48
(dp49
g22
Nsg23
Nsg24
Vvimfiles/bitmaps/TVO
p50
sg10
Nsg26
Nsg27
g28
sg29
Nsbag1
(g19
g3
NtRp51
(dp52
g22
Nsg23
Nsg24
Vvimfiles/bitmaps/TVO/1.bmp
p53
sg10
Nsg26
Nsg27
g28
sg29
Nsbag1
(g19
g3
NtRp54
(dp55
g22
Nsg23
Nsg24
Vvimfiles/bitmaps/TVO/1.xpm
p56
sg10
Nsg26
Nsg27
g28
sg29
Nsbag1
(g19
g3
NtRp57
(dp58
g22
Nsg23
Nsg24
Vvimfiles/bitmaps/TVO/2.bmp
p59
sg10
Nsg26
Nsg27
g28
sg29
Nsbag1
(g19
g3
NtRp60
(dp61
g22
Nsg23
Nsg24
Vvimfiles/bitmaps/TVO/2.xpm
p62
sg10
Nsg26
Nsg27
g28
sg29
Nsbag1
(g19
g3
NtRp63
(dp64
g22
Nsg23
Nsg24
Vvimfiles/bitmaps/TVO/3.bmp
p65
sg10
Nsg26
Nsg27
g28
sg29
Nsbag1
(g19
g3
NtRp66
(dp67
g22
Nsg23
Nsg24
Vvimfiles/bitmaps/TVO/3.xpm
p68
sg10
Nsg26
Nsg27
g28
sg29
Nsbag1
(g19
g3
NtRp69
(dp70
g22
Nsg23
Nsg24
Vvimfiles/bitmaps/TVO/4.bmp
p71
sg10
Nsg26
Nsg27
g28
sg29
Nsbag1
(g19
g3
NtRp72
(dp73
g22
Nsg23
Nsg24
Vvimfiles/bitmaps/TVO/4.xpm
p74
sg10
Nsg26
Nsg27
g28
sg29
Nsbag1
(g19
g3
NtRp75
(dp76
g22
Nsg23
Nsg24
Vvimfiles/bitmaps/TVO/5.bmp
p77
sg10
Nsg26
Nsg27
g28
sg29
Nsbag1
(g19
g3
NtRp78
(dp79
g22
Nsg23
Nsg24
Vvimfiles/bitmaps/TVO/5.xpm
p80
sg10
Nsg26
Nsg27
g28
sg29
Nsbag1
(g19
g3
NtRp81
(dp82
g22
Nsg23
Nsg24
Vvimfiles/bitmaps/TVO/6.bmp
p83
sg10
Nsg26
Nsg27
g28
sg29
Nsbag1
(g19
g3
NtRp84
(dp85
g22
Nsg23
Nsg24
Vvimfiles/bitmaps/TVO/6.xpm
p86
sg10
Nsg26
Nsg27
g28
sg29
Nsbag1
(g19
g3
NtRp87
(dp88
g22
Nsg23
Nsg24
Vvimfiles/bitmaps/TVO/7.bmp
p89
sg10
Nsg26
Nsg27
g28
sg29
Nsbag1
(g19
g3
NtRp90
(dp91
g22
Nsg23
Nsg24
Vvimfiles/bitmaps/TVO/7.xpm
p92
sg10
Nsg26
Nsg27
g28
sg29
Nsbag1
(g19
g3
NtRp93
(dp94
g22
Nsg23
Nsg24
Vvimfiles/bitmaps/TVO/all.bmp
p95
sg10
Nsg26
Nsg27
g28
sg29
Nsbag1
(g19
g3
NtRp96
(dp97
g22
Nsg23
Nsg24
Vvimfiles/bitmaps/TVO/all.xpm
p98
sg10
Nsg26
Nsg27
g28
sg29
Nsbag1
(g19
g3
NtRp99
(dp100
g22
Nsg23
Nsg24
Vvimfiles/bitmaps/TVO/bodytext.bmp
p101
sg10
Nsg26
Nsg27
g28
sg29
Nsbag1
(g19
g3
NtRp102
(dp103
g22
Nsg23
Nsg24
Vvimfiles/bitmaps/TVO/bodytext.xpm
p104
sg10
Nsg26
Nsg27
g28
sg29
Nsbag1
(g19
g3
NtRp105
(dp106
g22
Nsg23
Nsg24
Vvimfiles/bitmaps/TVO/down.bmp
p107
sg10
Nsg26
Nsg27
g28
sg29
Nsbag1
(g19
g3
NtRp108
(dp109
g22
Nsg23
Nsg24
Vvimfiles/bitmaps/TVO/down.xpm
p110
sg10
Nsg26
Nsg27
g28
sg29
Nsbag1
(g19
g3
NtRp111
(dp112
g22
Nsg23
Nsg24
Vvimfiles/bitmaps/TVO/firstline.bmp
p113
sg10
Nsg26
Nsg27
g28
sg29
Nsbag1
(g19
g3
NtRp114
(dp115
g22
Nsg23
Nsg24
Vvimfiles/bitmaps/TVO/firstline.xpm
p116
sg10
Nsg26
Nsg27
g28
sg29
Nsbag1
(g19
g3
NtRp117
(dp118
g22
Nsg23
Nsg24
Vvimfiles/bitmaps/TVO/left.bmp
p119
sg10
Nsg26
Nsg27
g28
sg29
Nsbag1
(g19
g3
NtRp120
(dp121
g22
Nsg23
Nsg24
Vvimfiles/bitmaps/TVO/left.xpm
p122
sg10
Nsg26
Nsg27
g28
sg29
Nsbag1
(g19
g3
NtRp123
(dp124
g22
Nsg23
Nsg24
Vvimfiles/bitmaps/TVO/minus.bmp
p125
sg10
Nsg26
Nsg27
g28
sg29
Nsbag1
(g19
g3
NtRp126
(dp127
g22
Nsg23
Nsg24
Vvimfiles/bitmaps/TVO/minus.xpm
p128
sg10
Nsg26
Nsg27
g28
sg29
Nsbag1
(g19
g3
NtRp129
(dp130
g22
Nsg23
Nsg24
Vvimfiles/bitmaps/TVO/plus.bmp
p131
sg10
Nsg26
Nsg27
g28
sg29
Nsbag1
(g19
g3
NtRp132
(dp133
g22
Nsg23
Nsg24
Vvimfiles/bitmaps/TVO/plus.xpm
p134
sg10
Nsg26
Nsg27
g28
sg29
Nsbag1
(g19
g3
NtRp135
(dp136
g22
Nsg23
Nsg24
Vvimfiles/bitmaps/TVO/right.bmp
p137
sg10
Nsg26
Nsg27
g28
sg29
Nsbag1
(g19
g3
NtRp138
(dp139
g22
Nsg23
Nsg24
Vvimfiles/bitmaps/TVO/right.xpm
p140
sg10
Nsg26
Nsg27
g28
sg29
Nsbag1
(g19
g3
NtRp141
(dp142
g22
Nsg23
Nsg24
Vvimfiles/bitmaps/TVO/up.bmp
p143
sg10
Nsg26
Nsg27
g28
sg29
Nsbag1
(g19
g3
NtRp144
(dp145
g22
Nsg23
Nsg24
Vvimfiles/bitmaps/TVO/up.xpm
p146
sg10
Nsg26
Nsg27
g28
sg29
Nsbag1
(g19
g3
NtRp147
(dp148
g22
Nsg23
Nsg24
Vvimfiles/colors
p149
sg10
Nsg26
Nsg27
g28
sg29
Nsbag1
(g19
g3
NtRp150
(dp151
g22
Nsg23
Nsg24
Vvimfiles/colors/aqua.vim
p152
sg10
Nsg26
Nsg27
g28
sg29
Nsbag1
(g19
g3
NtRp153
(dp154
g22
Nsg23
Nsg24
Vvimfiles/colors/biogoo.vim
p155
sg10
Nsg26
Nsg27
g28
sg29
Nsbag1
(g19
g3
NtRp156
(dp157
g22
Nsg23
Nsg24
Vvimfiles/colors/bluegreen.vim
p158
sg10
Nsg26
Nsg27
g28
sg29
Nsbag1
(g19
g3
NtRp159
(dp160
g22
Nsg23
Nsg24
Vvimfiles/colors/camo.vim
p161
sg10
Nsg26
Nsg27
g28
sg29
Nsbag1
(g19
g3
NtRp162
(dp163
g22
Nsg23
Nsg24
Vvimfiles/colors/cloudy.vim
p164
sg10
Nsg26
Nsg27
g28
sg29
Nsbag1
(g19
g3
NtRp165
(dp166
g22
Nsg23
Nsg24
Vvimfiles/colors/darkblue2.vim
p167
sg10
Nsg26
Nsg27
g28
sg29
Nsbag1
(g19
g3
NtRp168
(dp169
g22
Nsg23
Nsg24
Vvimfiles/colors/zenburn.vim
p170
sg10
Nsg26
Nsg27
g28
sg29
Nsbag1
(g19
g3
NtRp171
(dp172
g22
Nsg23
Nsg24
Vvimfiles/compiler
p173
sg10
Nsg26
Nsg27
g28
sg29
Nsbag1
(g19
g3
NtRp174
(dp175
g22
Nsg23
Nsg24
Vvimfiles/compiler/nose.vim
p176
sg10
Nsg26
Nsg27
g28
sg29
Nsbag1
(g19
g3
NtRp177
(dp178
g22
Nsg23
Nsg24
Vvimfiles/doc
p179
sg10
Nsg26
Nsg27
g28
sg29
Nsbag1
(g19
g3
NtRp180
(dp181
g22
Nsg23
Nsg24
Vvimfiles/doc/NERD_tree.txt
p182
sg10
Nsg26
Nsg27
g28
sg29
Nsbag1
(g19
g3
NtRp183
(dp184
g22
Nsg23
Nsg24
Vvimfiles/doc/bufexplorer.txt
p185
sg10
Nsg26
Nsg27
g28
sg29
Nsbag1
(g19
g3
NtRp186
(dp187
g22
Nsg23
Nsg24
Vvimfiles/doc/crefvim.txt
p188
sg10
Nsg26
Nsg27
g28
sg29
Nsbag1
(g19
g3
NtRp189
(dp190
g22
Nsg23
Nsg24
Vvimfiles/doc/crefvimdoc.txt
p191
sg10
Nsg26
Nsg27
g28
sg29
Nsbag1
(g19
g3
NtRp192
(dp193
g22
Nsg23
Nsg24
Vvimfiles/doc/dbext.txt
p194
sg10
Nsg26
Nsg27
g28
sg29
Nsbag1
(g19
g3
NtRp195
(dp196
g22
Nsg23
Nsg24
Vvimfiles/doc/matchit.txt
p197
sg10
Nsg26
Nsg27
g28
sg29
Nsbag1
(g19
g3
NtRp198
(dp199
g22
Nsg23
Nsg24
Vvimfiles/doc/otl.txt
p200
sg10
Nsg26
Nsg27
g28
sg29
Nsbag1
(g19
g3
NtRp201
(dp202
g22
Nsg23
Nsg24
Vvimfiles/doc/project.txt
p203
sg10
Nsg26
Nsg27
g28
sg29
Nsbag1
(g19
g3
NtRp204
(dp205
g22
Nsg23
Nsg24
Vvimfiles/doc/taglist.txt
p206
sg10
Nsg26
Nsg27
g28
sg29
Nsbag1
(g19
g3
NtRp207
(dp208
g22
Nsg23
Nsg24
Vvimfiles/doc/tags
p209
sg10
Nsg26
Nsg27
g28
sg29
Nsbag1
(g19
g3
NtRp210
(dp211
g22
Nsg23
Nsg24
Vvimfiles/doc/xml-plugin.txt
p212
sg10
Nsg26
Nsg27
g28
sg29
Nsbag1
(g19
g3
NtRp213
(dp214
g22
Nsg23
Nsg24
Vvimfiles/ftdetect
p215
sg10
Nsg26
Nsg27
g28
sg29
Nsbag1
(g19
g3
NtRp216
(dp217
g22
Nsg23
Nsg24
Vvimfiles/ftdetect/gtd.vim
p218
sg10
Nsg26
Nsg27
g28
sg29
Nsbag1
(g19
g3
NtRp219
(dp220
g22
Nsg23
Nsg24
Vvimfiles/ftdetect/kid.vim
p221
sg10
Nsg26
Nsg27
g28
sg29
Nsbag1
(g19
g3
NtRp222
(dp223
g22
Nsg23
Nsg24
Vvimfiles/ftdetect/lse.vim
p224
sg10
Nsg26
Nsg27
g28
sg29
Nsbag1
(g19
g3
NtRp225
(dp226
g22
Nsg23
Nsg24
Vvimfiles/ftdetect/otl.vim
p227
sg10
Nsg26
Nsg27
g28
sg29
Nsbag1
(g19
g3
NtRp228
(dp229
g22
Nsg23
Nsg24
Vvimfiles/ftplugin
p230
sg10
Nsg26
Nsg27
g28
sg29
Nsbag1
(g19
g3
NtRp231
(dp232
g22
Nsg23
Nsg24
Vvimfiles/ftplugin/aspx.vim
p233
sg10
Nsg26
Nsg27
g28
sg29
Nsbag1
(g19
g3
NtRp234
(dp235
g22
Nsg23
Nsg24
Vvimfiles/ftplugin/c.vim
p236
sg10
Nsg26
Nsg27
g28
sg29
Nsbag1
(g19
g3
NtRp237
(dp238
g22
Nsg23
Nsg24
Vvimfiles/ftplugin/cs.vim
p239
sg10
Nsg26
Nsg27
g28
sg29
Nsbag1
(g19
g3
NtRp240
(dp241
g22
Nsg23
Nsg24
Vvimfiles/ftplugin/dtd.vim
p242
sg10
Nsg26
Nsg27
g28
sg29
Nsbag1
(g19
g3
NtRp243
(dp244
g22
Nsg23
Nsg24
Vvimfiles/ftplugin/erlang_local.vim
p245
sg10
Nsg26
Nsg27
g28
sg29
Nsbag1
(g19
g3
NtRp246
(dp247
g22
Nsg23
Nsg24
Vvimfiles/ftplugin/gtd.vim
p248
sg10
Nsg26
Nsg27
g28
sg29
Nsbag1
(g19
g3
NtRp249
(dp250
g22
Nsg23
Nsg24
Vvimfiles/ftplugin/html.vim
p251
sg10
Nsg26
Nsg27
g28
sg29
Nsbag1
(g19
g3
NtRp252
(dp253
g22
Nsg23
Nsg24
Vvimfiles/ftplugin/html_local.vim
p254
sg10
Nsg26
Nsg27
g28
sg29
Nsbag1
(g19
g3
NtRp255
(dp256
g22
Nsg23
Nsg24
Vvimfiles/ftplugin/htmlcheetah_local.vim
p257
sg10
Nsg26
Nsg27
g28
sg29
Nsbag1
(g19
g3
NtRp258
(dp259
g22
Nsg23
Nsg24
Vvimfiles/ftplugin/java.vim
p260
sg10
Nsg26
Nsg27
g28
sg29
Nsbag1
(g19
g3
NtRp261
(dp262
g22
Nsg23
Nsg24
Vvimfiles/ftplugin/jess_local.vim
p263
sg10
Nsg26
Nsg27
g28
sg29
Nsbag1
(g19
g3
NtRp264
(dp265
g22
Nsg23
Nsg24
Vvimfiles/ftplugin/kid.vim
p266
sg10
Nsg26
Nsg27
g28
sg29
Nsbag1
(g19
g3
NtRp267
(dp268
g22
Nsg23
Nsg24
Vvimfiles/ftplugin/lisp_local.vim
p269
sg10
Nsg26
Nsg27
g28
sg29
Nsbag1
(g19
g3
NtRp270
(dp271
g22
Nsg23
Nsg24
Vvimfiles/ftplugin/lse_local.vim
p272
sg10
Nsg26
Nsg27
g28
sg29
Nsbag1
(g19
g3
NtRp273
(dp274
g22
Nsg23
Nsg24
Vvimfiles/ftplugin/otl.vim
p275
sg10
Nsg26
Nsg27
g28
sg29
Nsbag1
(g19
g3
NtRp276
(dp277
g22
Nsg23
Nsg24
Vvimfiles/ftplugin/perl_local.vim
p278
sg10
Nsg26
Nsg27
g28
sg29
Nsbag1
(g19
g3
NtRp279
(dp280
g22
Nsg23
Nsg24
Vvimfiles/ftplugin/plaintex_local.vim
p281
sg10
Nsg26
Nsg27
g28
sg29
Nsbag1
(g19
g3
NtRp282
(dp283
g22
Nsg23
Nsg24
Vvimfiles/ftplugin/profile_builder.vim
p284
sg10
Nsg26
Nsg27
g28
sg29
Nsbag1
(g19
g3
NtRp285
(dp286
g22
Nsg23
Nsg24
Vvimfiles/ftplugin/python.vim
p287
sg10
Nsg26
Nsg27
g28
sg29
Nsbag1
(g19
g3
NtRp288
(dp289
g22
Nsg23
Nsg24
Vvimfiles/ftplugin/python_local.vim
p290
sg10
Nsg26
Nsg27
g28
sg29
Nsbag1
(g19
g3
NtRp291
(dp292
g22
Nsg23
Nsg24
Vvimfiles/ftplugin/rest_local.vim
p293
sg10
Nsg26
Nsg27
g28
sg29
Nsbag1
(g19
g3
NtRp294
(dp295
g22
Nsg23
Nsg24
Vvimfiles/ftplugin/rst_local.vim
p296
sg10
Nsg26
Nsg27
g28
sg29
Nsbag1
(g19
g3
NtRp297
(dp298
g22
Nsg23
Nsg24
Vvimfiles/ftplugin/ruby.vim
p299
sg10
Nsg26
Nsg27
g28
sg29
Nsbag1
(g19
g3
NtRp300
(dp301
g22
Nsg23
Nsg24
Vvimfiles/ftplugin/scheme.vim
p302
sg10
Nsg26
Nsg27
g28
sg29
Nsbag1
(g19
g3
NtRp303
(dp304
g22
Nsg23
Nsg24
Vvimfiles/ftplugin/tex_local.vim
p305
sg10
Nsg26
Nsg27
g28
sg29
Nsbag1
(g19
g3
NtRp306
(dp307
g22
Nsg23
Nsg24
Vvimfiles/ftplugin/xml.vim
p308
sg10
Nsg26
Nsg27
g28
sg29
Nsbag1
(g19
g3
NtRp309
(dp310
g22
Nsg23
Nsg24
Vvimfiles/ftplugin/xml_local.vim
p311
sg10
Nsg26
Nsg27
g28
sg29
Nsbag1
(g19
g3
NtRp312
(dp313
g22
Nsg23
Nsg24
Vvimfiles/ftplugin/xslt_local.vim
p314
sg10
Nsg26
Nsg27
g28
sg29
Nsbag1
(g19
g3
NtRp315
(dp316
g22
Nsg23
Nsg24
Vvimfiles/ftplugin/yaml_local.vim
p317
sg10
Nsg26
Nsg27
g28
sg29
Nsbag1
(g19
g3
NtRp318
(dp319
g22
Nsg23
Nsg24
Vvimfiles/indent
p320
sg10
Nsg26
Nsg27
g28
sg29
Nsbag1
(g19
g3
NtRp321
(dp322
g22
Nsg23
Nsg24
Vvimfiles/keymap
p323
sg10
Nsg26
Nsg27
g28
sg29
Nsbag1
(g19
g3
NtRp324
(dp325
g22
Nsg23
Nsg24
Vvimfiles/plugin
p326
sg10
Nsg26
Nsg27
g28
sg29
Nsbag1
(g19
g3
NtRp327
(dp328
g22
Nsg23
Nsg24
Vvimfiles/plugin/EasyHtml.vim
p329
sg10
Nsg26
Nsg27
g28
sg29
Nsbag1
(g19
g3
NtRp330
(dp331
g22
Nsg23
Nsg24
Vvimfiles/plugin/LargeFile.vim
p332
sg10
Nsg26
Nsg27
g28
sg29
Nsbag1
(g19
g3
NtRp333
(dp334
g22
Nsg23
Nsg24
Vvimfiles/plugin/NERD_tree.vim
p335
sg10
Nsg26
Nsg27
g28
sg29
Nsbag1
(g19
g3
NtRp336
(dp337
g22
Nsg23
Nsg24
Vvimfiles/plugin/bike.vim
p338
sg10
Nsg26
Nsg27
g28
sg29
Nsbag1
(g19
g3
NtRp339
(dp340
g22
Nsg23
Nsg24
Vvimfiles/plugin/bufexplorer.vim
p341
sg10
Nsg26
Nsg27
g28
sg29
Nsbag1
(g19
g3
NtRp342
(dp343
g22
Nsg23
Nsg24
Vvimfiles/plugin/calendar.vim
p344
sg10
Nsg26
Nsg27
g28
sg29
Nsbag1
(g19
g3
NtRp345
(dp346
g22
Nsg23
Nsg24
Vvimfiles/plugin/crefvim.vim
p347
sg10
Nsg26
Nsg27
g28
sg29
Nsbag1
(g19
g3
NtRp348
(dp349
g22
Nsg23
Nsg24
Vvimfiles/plugin/darcs.vim
p350
sg10
Nsg26
Nsg27
g28
sg29
Nsbag1
(g19
g3
NtRp351
(dp352
g22
Nsg23
Nsg24
Vvimfiles/plugin/dbext.vim
p353
sg10
Nsg26
Nsg27
g28
sg29
Nsbag1
(g19
g3
NtRp354
(dp355
g22
Nsg23
Nsg24
Vvimfiles/plugin/genutils.vim
p356
sg10
Nsg26
Nsg27
g28
sg29
Nsbag1
(g19
g3
NtRp357
(dp358
g22
Nsg23
Nsg24
Vvimfiles/plugin/matchit.vim
p359
sg10
Nsg26
Nsg27
g28
sg29
Nsbag1
(g19
g3
NtRp360
(dp361
g22
Nsg23
Nsg24
Vvimfiles/plugin/multvals.vim
p362
sg10
Nsg26
Nsg27
g28
sg29
Nsbag1
(g19
g3
NtRp363
(dp364
g22
Nsg23
Nsg24
Vvimfiles/plugin/project.vim
p365
sg10
Nsg26
Nsg27
g28
sg29
Nsbag1
(g19
g3
NtRp366
(dp367
g22
Nsg23
Nsg24
Vvimfiles/plugin/pydoc.vim
p368
sg10
Nsg26
Nsg27
g28
sg29
Nsbag1
(g19
g3
NtRp369
(dp370
g22
Nsg23
Nsg24
Vvimfiles/plugin/svncommand.vim
p371
sg10
Nsg26
Nsg27
g28
sg29
Nsbag1
(g19
g3
NtRp372
(dp373
g22
Nsg23
Nsg24
Vvimfiles/plugin/taglist.vim
p374
sg10
Nsg26
Nsg27
g28
sg29
Nsbag1
(g19
g3
NtRp375
(dp376
g22
Nsg23
Nsg24
Vvimfiles/scripts.vim
p377
sg10
Nsg26
Nsg27
g28
sg29
Nsbag1
(g19
g3
NtRp378
(dp379
g22
Nsg23
Nsg24
Vvimfiles/spell
p380
sg10
Nsg26
Nsg27
g28
sg29
Nsbag1
(g19
g3
NtRp381
(dp382
g22
Nsg23
Nsg24
Vvimfiles/spell/en.ascii.spl
p383
sg10
Nsg26
Nsg27
g28
sg29
Nsbag1
(g19
g3
NtRp384
(dp385
g22
Nsg23
Nsg24
Vvimfiles/spell/en.latin1.spl
p386
sg10
Nsg26
Nsg27
g28
sg29
Nsbag1
(g19
g3
NtRp387
(dp388
g22
Nsg23
Nsg24
Vvimfiles/spell/en.utf-8.spl
p389
sg10
Nsg26
Nsg27
g28
sg29
Nsbag1
(g19
g3
NtRp390
(dp391
g22
Nsg23
Nsg24
Vvimfiles/syntax
p392
sg10
Nsg26
Nsg27
g28
sg29
Nsbag1
(g19
g3
NtRp393
(dp394
g22
Nsg23
Nsg24
Vvimfiles/syntax/CVSAnnotate.vim
p395
sg10
Nsg26
Nsg27
g28
sg29
Nsbag1
(g19
g3
NtRp396
(dp397
g22
Nsg23
Nsg24
Vvimfiles/syntax/aspnet.vim
p398
sg10
Nsg26
Nsg27
g28
sg29
Nsbag1
(g19
g3
NtRp399
(dp400
g22
Nsg23
Nsg24
Vvimfiles/syntax/django.vim
p401
sg10
Nsg26
Nsg27
g28
sg29
Nsbag1
(g19
g3
NtRp402
(dp403
g22
Nsg23
Nsg24
Vvimfiles/syntax/gtd.vim
p404
sg10
Nsg26
Nsg27
g28
sg29
Nsbag1
(g19
g3
NtRp405
(dp406
g22
Nsg23
Nsg24
Vvimfiles/syntax/htmldjango.vim
p407
sg10
Nsg26
Nsg27
g28
sg29
Nsbag1
(g19
g3
NtRp408
(dp409
g22
Nsg23
Nsg24
Vvimfiles/syntax/kid.vim
p410
sg10
Nsg26
Nsg27
g28
sg29
Nsbag1
(g19
g3
NtRp411
(dp412
g22
Nsg23
Nsg24
Vvimfiles/syntax/lse.vim
p413
sg10
Nsg26
Nsg27
g28
sg29
Nsbag1
(g19
g3
NtRp414
(dp415
g22
Nsg23
Nsg24
Vvimfiles/syntax/moin.vim
p416
sg10
Nsg26
Nsg27
g28
sg29
Nsbag1
(g19
g3
NtRp417
(dp418
g22
Nsg23
Nsg24
Vvimfiles/syntax/otl.vim
p419
sg10
Nsg26
Nsg27
g28
sg29
Nsbag1
(g19
g3
NtRp420
(dp421
g22
Nsg23
Nsg24
Vvimfiles/syntax/profile_builder.vim
p422
sg10
Nsg26
Nsg27
g28
sg29
Nsbag1
(g19
g3
NtRp423
(dp424
g22
Nsg23
Nsg24
Vvimfiles/syntax/ps1.vim
p425
sg10
Nsg26
Nsg27
g28
sg29
Nsbag1
(g19
g3
NtRp426
(dp427
g22
Nsg23
Nsg24
Vvimfiles/syntax/rest.vim
p428
sg10
Nsg26
Nsg27
g28
sg29
Nsbag1
(g19
g3
NtRp429
(dp430
g22
Nsg23
Nsg24
Vvimfiles/syntax/yaml.vim
p431
sg10
Nsg26
Nsg27
g28
sg29
NsbasS'revision'
p432
Veric-20070110225256-183660e22c28d63d
p433
sb.ccopy_reg
_reconstructor
p1
(cvcpx.changes
Changeset
p2
c__builtin__
object
p3
NtRp4
(dp5
S'log'
p6
S'[project @ 3]\nadded _vimrc'
p7
sS'author'
p8
S'eric'
p9
sS'unidiff'
p10
NsS'tags'
p11
NsS'_Changeset__date'
p12
cdatetime
datetime
p13
(S'\x07\xd7\x01\n\x165"\x00\x00\x00'
cvcpx.tzinfo
_UTC
p14
(tRp15
tRp16
sS'entries'
p17
(lp18
g1
(cvcpx.changes
ChangesetEntry
p19
g3
NtRp20
(dp21
S'status'
p22
NsS'old_revision'
p23
NsS'name'
p24
V_vimrc
p25
sg10
NsS'new_revision'
p26
NsS'action_kind'
p27
S'ADD'
p28
sS'old_name'
p29
NsbasS'revision'
p30
Veric-20070110225334-9215f90eedc1e02b
p31
sb.ccopy_reg
_reconstructor
p1
(cvcpx.changes
Changeset
p2
c__builtin__
object
p3
NtRp4
(dp5
S'log'
p6
S'[project @ 4]\nInitial import'
p7
sS'author'
p8
S'eric'
p9
sS'unidiff'
p10
NsS'tags'
p11
NsS'_Changeset__date'
p12
cdatetime
datetime
p13
(S'\x07\xd7\x01\n\x1695\x00\x00\x00'
cvcpx.tzinfo
_UTC
p14
(tRp15
tRp16
sS'entries'
p17
(lp18
g1
(cvcpx.changes
ChangesetEntry
p19
g3
NtRp20
(dp21
S'status'
p22
NsS'old_revision'
p23
NsS'name'
p24
Vbin/ERochest.TimeKeeper.Win32.exe
p25
sg10
NsS'new_revision'
p26
NsS'action_kind'
p27
S'ADD'
p28
sS'old_name'
p29
Nsbag1
(g19
g3
NtRp30
(dp31
g22
Nsg23
Nsg24
Vbin/ERochest.TimeKeeper.dll
p32
sg10
Nsg26
Nsg27
g28
sg29
Nsbag1
(g19
g3
NtRp33
(dp34
g22
Nsg23
Nsg24
Vbin/LiquidIcon.exe
p35
sg10
Nsg26
Nsg27
g28
sg29
Nsbag1
(g19
g3
NtRp36
(dp37
g22
Nsg23
Nsg24
Vbin/RDNZL.dll
p38
sg10
Nsg26
Nsg27
g28
sg29
Nsbag1
(g19
g3
NtRp39
(dp40
g22
Nsg23
Nsg24
Vbin/TwoMinutes.exe
p41
sg10
Nsg26
Nsg27
g28
sg29
Nsbag1
(g19
g3
NtRp42
(dp43
g22
Nsg23
Nsg24
Vbin/avgdirsize.py
p44
sg10
Nsg26
Nsg27
g28
sg29
Nsbag1
(g19
g3
NtRp45
(dp46
g22
Nsg23
Nsg24
Vbin/birdseye.py
p47
sg10
Nsg26
Nsg27
g28
sg29
Nsbag1
(g19
g3
NtRp48
(dp49
g22
Nsg23
Nsg24
Vbin/cptypes.py
p50
sg10
Nsg26
Nsg27
g28
sg29
Nsbag1
(g19
g3
NtRp51
(dp52
g22
Nsg23
Nsg24
Vbin/ctags.exe
p53
sg10
Nsg26
Nsg27
g28
sg29
Nsbag1
(g19
g3
NtRp54
(dp55
g22
Nsg23
Nsg24
Vbin/darcs.exe
p56
sg10
Nsg26
Nsg27
g28
sg29
Nsbag1
(g19
g3
NtRp57
(dp58
g22
Nsg23
Nsg24
Vbin/diff.exe
p59
sg10
Nsg26
Nsg27
g28
sg29
Nsbag1
(g19
g3
NtRp60
(dp61
g22
Nsg23
Nsg24
Vbin/editmoin.py
p62
sg10
Nsg26
Nsg27
g28
sg29
Nsbag1
(g19
g3
NtRp63
(dp64
g22
Nsg23
Nsg24
Vbin/egrep.exe
p65
sg10
Nsg26
Nsg27
g28
sg29
Nsbag1
(g19
g3
NtRp66
(dp67
g22
Nsg23
Nsg24
Vbin/pageant.exe
p68
sg10
Nsg26
Nsg27
g28
sg29
Nsbag1
(g19
g3
NtRp69
(dp70
g22
Nsg23
Nsg24
Vbin/pdffonts.exe
p71
sg10
Nsg26
Nsg27
g28
sg29
Nsbag1
(g19
g3
NtRp72
(dp73
g22
Nsg23
Nsg24
Vbin/pdfimages.exe
p74
sg10
Nsg26
Nsg27
g28
sg29
Nsbag1
(g19
g3
NtRp75
(dp76
g22
Nsg23
Nsg24
Vbin/pdfinfo.exe
p77
sg10
Nsg26
Nsg27
g28
sg29
Nsbag1
(g19
g3
NtRp78
(dp79
g22
Nsg23
Nsg24
Vbin/pdftk.exe
p80
sg10
Nsg26
Nsg27
g28
sg29
Nsbag1
(g19
g3
NtRp81
(dp82
g22
Nsg23
Nsg24
Vbin/pdftoppm.exe
p83
sg10
Nsg26
Nsg27
g28
sg29
Nsbag1
(g19
g3
NtRp84
(dp85
g22
Nsg23
Nsg24
Vbin/pdftops.exe
p86
sg10
Nsg26
Nsg27
g28
sg29
Nsbag1
(g19
g3
NtRp87
(dp88
g22
Nsg23
Nsg24
Vbin/pdftotext.exe
p89
sg10
Nsg26
Nsg27
g28
sg29
Nsbag1
(g19
g3
NtRp90
(dp91
g22
Nsg23
Nsg24
Vbin/pdftotext.py
p92
sg10
Nsg26
Nsg27
g28
sg29
Nsbag1
(g19
g3
NtRp93
(dp94
g22
Nsg23
Nsg24
Vbin/puttygen.exe
p95
sg10
Nsg26
Nsg27
g28
sg29
Nsbag1
(g19
g3
NtRp96
(dp97
g22
Nsg23
Nsg24
Vbin/scp.exe
p98
sg10
Nsg26
Nsg27
g28
sg29
Nsbag1
(g19
g3
NtRp99
(dp100
g22
Nsg23
Nsg24
Vbin/sftp.exe
p101
sg10
Nsg26
Nsg27
g28
sg29
Nsbag1
(g19
g3
NtRp102
(dp103
g22
Nsg23
Nsg24
Vbin/sqlite3.def
p104
sg10
Nsg26
Nsg27
g28
sg29
Nsbag1
(g19
g3
NtRp105
(dp106
g22
Nsg23
Nsg24
Vbin/sqlite3.dll
p107
sg10
Nsg26
Nsg27
g28
sg29
Nsbag1
(g19
g3
NtRp108
(dp109
g22
Nsg23
Nsg24
Vbin/sqlite3.exe
p110
sg10
Nsg26
Nsg27
g28
sg29
Nsbag1
(g19
g3
NtRp111
(dp112
g22
Nsg23
Nsg24
Vbin/ssh.exe
p113
sg10
Nsg26
Nsg27
g28
sg29
Nsbag1
(g19
g3
NtRp114
(dp115
g22
Nsg23
Nsg24
Vbin/todo.bat
p116
sg10
Nsg26
Nsg27
g28
sg29
Nsbag1
(g19
g3
NtRp117
(dp118
g22
Nsg23
Nsg24
Vbin/todo.sh
p119
sg10
Nsg26
Nsg27
g28
sg29
Nsbag1
(g19
g3
NtRp120
(dp121
g22
Nsg23
Nsg24
Vbin/wget.exe
p122
sg10
Nsg26
Nsg27
g28
sg29
NsbasS'revision'
p123
Veric-20070110225753-6f98ce540e569ef2
p124
sb.ccopy_reg
_reconstructor
p1
(cvcpx.changes
Changeset
p2
c__builtin__
object
p3
NtRp4
(dp5
S'log'
p6
S'[project @ 5]\nInitial import'
p7
sS'author'
p8
S'eric'
p9
sS'unidiff'
p10
NsS'tags'
p11
NsS'_Changeset__date'
p12
cdatetime
datetime
p13
(S'\x07\xd7\x01\n\x16;\r\x00\x00\x00'
cvcpx.tzinfo
_UTC
p14
(tRp15
tRp16
sS'entries'
p17
(lp18
g1
(cvcpx.changes
ChangesetEntry
p19
g3
NtRp20
(dp21
S'status'
p22
NsS'old_revision'
p23
NsS'name'
p24
V.bash_aliases
p25
sg10
NsS'new_revision'
p26
NsS'action_kind'
p27
S'ADD'
p28
sS'old_name'
p29
Nsbag1
(g19
g3
NtRp30
(dp31
g22
Nsg23
Nsg24
V.bash_profile
p32
sg10
Nsg26
Nsg27
g28
sg29
Nsbag1
(g19
g3
NtRp33
(dp34
g22
Nsg23
Nsg24
V.bashrc
p35
sg10
Nsg26
Nsg27
g28
sg29
Nsbag1
(g19
g3
NtRp36
(dp37
g22
Nsg23
Nsg24
V.emacs
p38
sg10
Nsg26
Nsg27
g28
sg29
Nsbag1
(g19
g3
NtRp39
(dp40
g22
Nsg23
Nsg24
V.sbclrc
p41
sg10
Nsg26
Nsg27
g28
sg29
Nsbag1
(g19
g3
NtRp42
(dp43
g22
Nsg23
Nsg24
V.todo
p44
sg10
Nsg26
Nsg27
g28
sg29
Nsbag1
(g19
g3
NtRp45
(dp46
g22
Nsg23
Nsg24
Vpyreadlineconfig.ini
p47
sg10
Nsg26
Nsg27
g28
sg29
NsbasS'revision'
p48
Veric-20070110225913-cc124b85c8002b7b
p49
sb.ccopy_reg
_reconstructor
p1
(cvcpx.changes
Changeset
p2
c__builtin__
object
p3
NtRp4
(dp5
S'log'
p6
S'[project @ 6]\nchanged location of gtd files'
p7
sS'author'
p8
S'eric'
p9
sS'unidiff'
p10
NsS'tags'
p11
NsS'_Changeset__date'
p12
cdatetime
datetime
p13
(S'\x07\xd7\x01\n\x17\x08;\x00\x00\x00'
cvcpx.tzinfo
_UTC
p14
(tRp15
tRp16
sS'entries'
p17
(lp18
g1
(cvcpx.changes
ChangesetEntry
p19
g3
NtRp20
(dp21
S'status'
p22
NsS'old_revision'
p23
NsS'name'
p24
V.todo
p25
sg10
NsS'new_revision'
p26
NsS'action_kind'
p27
S'UPD'
p28
sS'old_name'
p29
NsbasS'revision'
p30
Veric-20070110230859-ea49a5e241f0286e
p31
sb.ccopy_reg
_reconstructor
p1
(cvcpx.changes
Changeset
p2
c__builtin__
object
p3
NtRp4
(dp5
S'log'
p6
S'[project @ 8]\nupdated .emacs'
p7
sS'author'
p8
S'eric'
p9
sS'unidiff'
p10
NsS'tags'
p11
NsS'_Changeset__date'
p12
cdatetime
datetime
p13
(S'\x07\xd7\x01\n\x17$#\x00\x00\x00'
cvcpx.tzinfo
_UTC
p14
(tRp15
tRp16
sS'entries'
p17
(lp18
g1
(cvcpx.changes
ChangesetEntry
p19
g3
NtRp20
(dp21
S'status'
p22
NsS'old_revision'
p23
NsS'name'
p24
V.emacs
p25
sg10
NsS'new_revision'
p26
NsS'action_kind'
p27
S'UPD'
p28
sS'old_name'
p29
NsbasS'revision'
p30
Veric-20070110233635-eef560ffb25d33df
p31
sb.ccopy_reg
_reconstructor
p1
(cvcpx.changes
Changeset
p2
c__builtin__
object
p3
NtRp4
(dp5
S'log'
p6
S'[project @ 25]\nadded WindowsPowerShell directory'
p7
sS'author'
p8
S'eric'
p9
sS'unidiff'
p10
NsS'tags'
p11
NsS'_Changeset__date'
p12
cdatetime
datetime
p13
(S'\x07\xd7\x01\x0c\x12.\x0b\x00\x00\x00'
cvcpx.tzinfo
_UTC
p14
(tRp15
tRp16
sS'entries'
p17
(lp18
g1
(cvcpx.changes
ChangesetEntry
p19
g3
NtRp20
(dp21
S'status'
p22
NsS'old_revision'
p23
NsS'name'
p24
VWindowsPowerShell
p25
sg10
NsS'new_revision'
p26
NsS'action_kind'
p27
S'ADD'
p28
sS'old_name'
p29
Nsbag1
(g19
g3
NtRp30
(dp31
g22
Nsg23
Nsg24
VWindowsPowerShell/Microsoft.PowerShell_profile.ps1
p32
sg10
Nsg26
Nsg27
g28
sg29
Nsbag1
(g19
g3
NtRp33
(dp34
g22
Nsg23
Nsg24
Vcgi-bin
p35
sg10
Nsg26
Nsg27
g28
sg29
NsbasS'revision'
p36
Veric-20070112184611-c128e2d68899e597
p37
sb.ccopy_reg
_reconstructor
p1
(cvcpx.changes
Changeset
p2
c__builtin__
object
p3
NtRp4
(dp5
S'log'
p6
S'[project @ 34]\n_vimrc colorscheme change'
p7
sS'author'
p8
S'eric'
p9
sS'unidiff'
p10
NsS'tags'
p11
NsS'_Changeset__date'
p12
cdatetime
datetime
p13
(S'\x07\xd7\x01\x0f\x17\x0e&\x00\x00\x00'
cvcpx.tzinfo
_UTC
p14
(tRp15
tRp16
sS'entries'
p17
(lp18
g1
(cvcpx.changes
ChangesetEntry
p19
g3
NtRp20
(dp21
S'status'
p22
NsS'old_revision'
p23
NsS'name'
p24
V_vimrc
p25
sg10
NsS'new_revision'
p26
NsS'action_kind'
p27
S'UPD'
p28
sS'old_name'
p29
NsbasS'revision'
p30
Veric-20070115231438-fac713c21005c72d
p31
sb.ccopy_reg
_reconstructor
p1
(cvcpx.changes
Changeset
p2
c__builtin__
object
p3
NtRp4
(dp5
S'log'
p6
S'[project @ 37]\nMoved gtd to be under home.'
p7
sS'author'
p8
S'eric'
p9
sS'unidiff'
p10
NsS'tags'
p11
NsS'_Changeset__date'
p12
cdatetime
datetime
p13
(S'\x07\xd7\x01\x11\x02\x19\x0b\x00\x00\x00'
cvcpx.tzinfo
_UTC
p14
(tRp15
tRp16
sS'entries'
p17
(lp18
g1
(cvcpx.changes
ChangesetEntry
p19
g3
NtRp20
(dp21
S'status'
p22
NsS'old_revision'
p23
NsS'name'
p24
Vgtd
p25
sg10
NsS'new_revision'
p26
NsS'action_kind'
p27
S'ADD'
p28
sS'old_name'
p29
Nsbag1
(g19
g3
NtRp30
(dp31
g22
Nsg23
Nsg24
Vgtd/Getting Things Done - Allen, David -The Art of Stress-Free Productivity.pdf
p32
sg10
Nsg26
Nsg27
g28
sg29
Nsbag1
(g19
g3
NtRp33
(dp34
g22
Nsg23
Nsg24
Vgtd/diyplanner
p35
sg10
Nsg26
Nsg27
g28
sg29
Nsbag1
(g19
g3
NtRp36
(dp37
g22
Nsg23
Nsg24
Vgtd/diyplanner/diyp3_core_cl_2up.pdf
p38
sg10
Nsg26
Nsg27
g28
sg29
Nsbag1
(g19
g3
NtRp39
(dp40
g22
Nsg23
Nsg24
Vgtd/diyplanner/diyp3_creativity_cl_2up.pdf
p41
sg10
Nsg26
Nsg27
g28
sg29
Nsbag1
(g19
g3
NtRp42
(dp43
g22
Nsg23
Nsg24
Vgtd/diyplanner/diyp3_gtdref_cl_2up.pdf
p44
sg10
Nsg26
Nsg27
g28
sg29
Nsbag1
(g19
g3
NtRp45
(dp46
g22
Nsg23
Nsg24
Vgtd/diyplanner/diyp3_health_cl_2up.pdf
p47
sg10
Nsg26
Nsg27
g28
sg29
Nsbag1
(g19
g3
NtRp48
(dp49
g22
Nsg23
Nsg24
Vgtd/diyplanner/diyp3_notes_cl_2up.pdf
p50
sg10
Nsg26
Nsg27
g28
sg29
Nsbag1
(g19
g3
NtRp51
(dp52
g22
Nsg23
Nsg24
Vgtd/done.txt
p53
sg10
Nsg26
Nsg27
g28
sg29
Nsbag1
(g19
g3
NtRp54
(dp55
g22
Nsg23
Nsg24
Vgtd/gtd-with-gmail.pdf
p56
sg10
Nsg26
Nsg27
g28
sg29
Nsbag1
(g19
g3
NtRp57
(dp58
g22
Nsg23
Nsg24
Vgtd/report.txt
p59
sg10
Nsg26
Nsg27
g28
sg29
Nsbag1
(g19
g3
NtRp60
(dp61
g22
Nsg23
Nsg24
Vgtd/todo.txt
p62
sg10
Nsg26
Nsg27
g28
sg29
Nsbag1
(g19
g3
NtRp63
(dp64
g22
Nsg23
Nsg24
Vgtd/worklog.txt
p65
sg10
Nsg26
Nsg27
g28
sg29
NsbasS'revision'
p66
Veric-20070117022511-19b0efe6879ad2df
p67
sb.ccopy_reg
_reconstructor
p1
(cvcpx.changes
Changeset
p2
c__builtin__
object
p3
NtRp4
(dp5
S'log'
p6
S'[project @ 38]\nchanged location of gtd files'
p7
sS'author'
p8
S'eric'
p9
sS'unidiff'
p10
NsS'tags'
p11
NsS'_Changeset__date'
p12
cdatetime
datetime
p13
(S'\x07\xd7\x01\x11\x02\x1a\x01\x00\x00\x00'
cvcpx.tzinfo
_UTC
p14
(tRp15
tRp16
sS'entries'
p17
(lp18
g1
(cvcpx.changes
ChangesetEntry
p19
g3
NtRp20
(dp21
S'status'
p22
NsS'old_revision'
p23
NsS'name'
p24
V.todo
p25
sg10
NsS'new_revision'
p26
NsS'action_kind'
p27
S'UPD'
p28
sS'old_name'
p29
NsbasS'revision'
p30
Veric-20070117022601-c037aa200bca9041
p31
sb.ccopy_reg
_reconstructor
p1
(cvcpx.changes
Changeset
p2
c__builtin__
object
p3
NtRp4
(dp5
S'log'
p6
S'[project @ 39]\nvimfiles updated xml plugin documentation'
p7
sS'author'
p8
S'eric'
p9
sS'unidiff'
p10
NsS'tags'
p11
NsS'_Changeset__date'
p12
cdatetime
datetime
p13
(S'\x07\xd7\x01\x11\x02\x1a\x0f\x00\x00\x00'
cvcpx.tzinfo
_UTC
p14
(tRp15
tRp16
sS'entries'
p17
(lp18
g1
(cvcpx.changes
ChangesetEntry
p19
g3
NtRp20
(dp21
S'status'
p22
NsS'old_revision'
p23
NsS'name'
p24
Vvimfiles/doc/xml-plugin.txt
p25
sg10
NsS'new_revision'
p26
NsS'action_kind'
p27
S'UPD'
p28
sS'old_name'
p29
NsbasS'revision'
p30
Veric-20070117022615-ee58b55a1a86a73b
p31
sb.ccopy_reg
_reconstructor
p1
(cvcpx.changes
Changeset
p2
c__builtin__
object
p3
NtRp4
(dp5
S'log'
p6
S'[project @ 40]\nMoved projects to be under home/gtd.'
p7
sS'author'
p8
S'eric'
p9
sS'unidiff'
p10
NsS'tags'
p11
NsS'_Changeset__date'
p12
cdatetime
datetime
p13
(S'\x07\xd7\x01\x11\x029 \x00\x00\x00'
cvcpx.tzinfo
_UTC
p14
(tRp15
tRp16
sS'entries'
p17
(lp18
g1
(cvcpx.changes
ChangesetEntry
p19
g3
NtRp20
(dp21
S'status'
p22
NsS'old_revision'
p23
NsS'name'
p24
Vgtd/projects
p25
sg10
NsS'new_revision'
p26
NsS'action_kind'
p27
S'ADD'
p28
sS'old_name'
p29
NsbasS'revision'
p30
Veric-20070117025732-7635d1a745ee6c8b
p31
sb.ccopy_reg
_reconstructor
p1
(cvcpx.changes
Changeset
p2
c__builtin__
object
p3
NtRp4
(dp5
S'log'
p6
S'[project @ 41]\nMoved someday-maybe to home/gtd.'
p7
sS'author'
p8
S'eric'
p9
sS'unidiff'
p10
NsS'tags'
p11
NsS'_Changeset__date'
p12
cdatetime
datetime
p13
(S'\x07\xd7\x01\x11\x02:\x15\x00\x00\x00'
cvcpx.tzinfo
_UTC
p14
(tRp15
tRp16
sS'entries'
p17
(lp18
g1
(cvcpx.changes
ChangesetEntry
p19
g3
NtRp20
(dp21
S'status'
p22
NsS'old_revision'
p23
NsS'name'
p24
Vgtd/projects/someday-maybe
p25
sg10
NsS'new_revision'
p26
NsS'action_kind'
p27
S'ADD'
p28
sS'old_name'
p29
NsbasS'revision'
p30
Veric-20070117025821-14b988596a0d70c7
p31
sb.ccopy_reg
_reconstructor
p1
(cvcpx.changes
Changeset
p2
c__builtin__
object
p3
NtRp4
(dp5
S'log'
p6
S'[project @ 42]\ntodo 16 jan 2007'
p7
sS'author'
p8
S'eric'
p9
sS'unidiff'
p10
NsS'tags'
p11
NsS'_Changeset__date'
p12
cdatetime
datetime
p13
(S'\x07\xd7\x01\x11\x03\x00\x18\x00\x00\x00'
cvcpx.tzinfo
_UTC
p14
(tRp15
tRp16
sS'entries'
p17
(lp18
g1
(cvcpx.changes
ChangesetEntry
p19
g3
NtRp20
(dp21
S'status'
p22
NsS'old_revision'
p23
NsS'name'
p24
Vgtd/todo.txt
p25
sg10
NsS'new_revision'
p26
NsS'action_kind'
p27
S'UPD'
p28
sS'old_name'
p29
NsbasS'revision'
p30
Veric-20070117030024-1172cb0ddb8a33a9
p31
sb.ccopy_reg
_reconstructor
p1
(cvcpx.changes
Changeset
p2
c__builtin__
object
p3
NtRp4
(dp5
S'log'
p6
S'[project @ 43]\nupdated .emacs to point to the correct new lisp-site location'
p7
sS'author'
p8
S'eric'
p9
sS'unidiff'
p10
NsS'tags'
p11
NsS'_Changeset__date'
p12
cdatetime
datetime
p13
(S'\x07\xd7\x01\x11\x16)8\x00\x00\x00'
cvcpx.tzinfo
_UTC
p14
(tRp15
tRp16
sS'entries'
p17
(lp18
g1
(cvcpx.changes
ChangesetEntry
p19
g3
NtRp20
(dp21
S'status'
p22
NsS'old_revision'
p23
NsS'name'
p24
V.emacs
p25
sg10
NsS'new_revision'
p26
NsS'action_kind'
p27
S'UPD'
p28
sS'old_name'
p29
Nsbag1
(g19
g3
NtRp30
(dp31
g22
Nsg23
Nsg24
Vgtd/todo.txt
p32
sg10
Nsg26
Nsg27
g28
sg29
Nsbag1
(g19
g3
NtRp33
(dp34
g22
Nsg23
Nsg24
Vgtd/worklog.txt
p35
sg10
Nsg26
Nsg27
g28
sg29
NsbasS'revision'
p36
Veric-20070117224156-b74665877019c6ac
p37
sb.ccopy_reg
_reconstructor
p1
(cvcpx.changes
Changeset
p2
c__builtin__
object
p3
NtRp4
(dp5
S'log'
p6
S'[project @ 44]\nadded janitor script'
p7
sS'author'
p8
S'eric'
p9
sS'unidiff'
p10
NsS'tags'
p11
NsS'_Changeset__date'
p12
cdatetime
datetime
p13
(S'\x07\xd7\x01\x12\x03)\x05\x00\x00\x00'
cvcpx.tzinfo
_UTC
p14
(tRp15
tRp16
sS'entries'
p17
(lp18
g1
(cvcpx.changes
ChangesetEntry
p19
g3
NtRp20
(dp21
S'status'
p22
NsS'old_revision'
p23
NsS'name'
p24
Vbin/janitor.py
p25
sg10
NsS'new_revision'
p26
NsS'action_kind'
p27
S'ADD'
p28
sS'old_name'
p29
NsbasS'revision'
p30
Veric-20070118034105-b95a1896b736cec0
p31
sb.ccopy_reg
_reconstructor
p1
(cvcpx.changes
Changeset
p2
c__builtin__
object
p3
NtRp4
(dp5
S'log'
p6
S'[project @ 45]\nvimfiles added notes sections to lse syntax script'
p7
sS'author'
p8
S'eric'
p9
sS'unidiff'
p10
NsS'tags'
p11
NsS'_Changeset__date'
p12
cdatetime
datetime
p13
(S'\x07\xd7\x01\x12\x03)\x1e\x00\x00\x00'
cvcpx.tzinfo
_UTC
p14
(tRp15
tRp16
sS'entries'
p17
(lp18
g1
(cvcpx.changes
ChangesetEntry
p19
g3
NtRp20
(dp21
S'status'
p22
NsS'old_revision'
p23
NsS'name'
p24
Vvimfiles/syntax/lse.vim
p25
sg10
NsS'new_revision'
p26
NsS'action_kind'
p27
S'UPD'
p28
sS'old_name'
p29
NsbasS'revision'
p30
Veric-20070118034130-a39fcb6eff1bc602
p31
sb.ccopy_reg
_reconstructor
p1
(cvcpx.changes
Changeset
p2
c__builtin__
object
p3
NtRp4
(dp5
S'log'
p6
S'[project @ 46]\nvimfiles changed foldcolumn to 1'
p7
sS'author'
p8
S'eric'
p9
sS'unidiff'
p10
NsS'tags'
p11
NsS'_Changeset__date'
p12
cdatetime
datetime
p13
(S'\x07\xd7\x01\x12\x03)7\x00\x00\x00'
cvcpx.tzinfo
_UTC
p14
(tRp15
tRp16
sS'entries'
p17
(lp18
g1
(cvcpx.changes
ChangesetEntry
p19
g3
NtRp20
(dp21
S'status'
p22
NsS'old_revision'
p23
NsS'name'
p24
Vvimfiles/ftplugin/c.vim
p25
sg10
NsS'new_revision'
p26
NsS'action_kind'
p27
S'UPD'
p28
sS'old_name'
p29
Nsbag1
(g19
g3
NtRp30
(dp31
g22
Nsg23
Nsg24
Vvimfiles/ftplugin/cs.vim
p32
sg10
Nsg26
Nsg27
g28
sg29
Nsbag1
(g19
g3
NtRp33
(dp34
g22
Nsg23
Nsg24
Vvimfiles/ftplugin/dtd.vim
p35
sg10
Nsg26
Nsg27
g28
sg29
Nsbag1
(g19
g3
NtRp36
(dp37
g22
Nsg23
Nsg24
Vvimfiles/ftplugin/erlang_local.vim
p38
sg10
Nsg26
Nsg27
g28
sg29
Nsbag1
(g19
g3
NtRp39
(dp40
g22
Nsg23
Nsg24
Vvimfiles/ftplugin/html_local.vim
p41
sg10
Nsg26
Nsg27
g28
sg29
Nsbag1
(g19
g3
NtRp42
(dp43
g22
Nsg23
Nsg24
Vvimfiles/ftplugin/htmlcheetah_local.vim
p44
sg10
Nsg26
Nsg27
g28
sg29
Nsbag1
(g19
g3
NtRp45
(dp46
g22
Nsg23
Nsg24
Vvimfiles/ftplugin/java.vim
p47
sg10
Nsg26
Nsg27
g28
sg29
Nsbag1
(g19
g3
NtRp48
(dp49
g22
Nsg23
Nsg24
Vvimfiles/ftplugin/jess_local.vim
p50
sg10
Nsg26
Nsg27
g28
sg29
Nsbag1
(g19
g3
NtRp51
(dp52
g22
Nsg23
Nsg24
Vvimfiles/ftplugin/lisp_local.vim
p53
sg10
Nsg26
Nsg27
g28
sg29
Nsbag1
(g19
g3
NtRp54
(dp55
g22
Nsg23
Nsg24
Vvimfiles/ftplugin/lse_local.vim
p56
sg10
Nsg26
Nsg27
g28
sg29
Nsbag1
(g19
g3
NtRp57
(dp58
g22
Nsg23
Nsg24
Vvimfiles/ftplugin/perl_local.vim
p59
sg10
Nsg26
Nsg27
g28
sg29
Nsbag1
(g19
g3
NtRp60
(dp61
g22
Nsg23
Nsg24
Vvimfiles/ftplugin/plaintex_local.vim
p62
sg10
Nsg26
Nsg27
g28
sg29
Nsbag1
(g19
g3
NtRp63
(dp64
g22
Nsg23
Nsg24
Vvimfiles/ftplugin/python_local.vim
p65
sg10
Nsg26
Nsg27
g28
sg29
Nsbag1
(g19
g3
NtRp66
(dp67
g22
Nsg23
Nsg24
Vvimfiles/ftplugin/rest_local.vim
p68
sg10
Nsg26
Nsg27
g28
sg29
Nsbag1
(g19
g3
NtRp69
(dp70
g22
Nsg23
Nsg24
Vvimfiles/ftplugin/rst_local.vim
p71
sg10
Nsg26
Nsg27
g28
sg29
Nsbag1
(g19
g3
NtRp72
(dp73
g22
Nsg23
Nsg24
Vvimfiles/ftplugin/ruby.vim
p74
sg10
Nsg26
Nsg27
g28
sg29
Nsbag1
(g19
g3
NtRp75
(dp76
g22
Nsg23
Nsg24
Vvimfiles/ftplugin/scheme.vim
p77
sg10
Nsg26
Nsg27
g28
sg29
Nsbag1
(g19
g3
NtRp78
(dp79
g22
Nsg23
Nsg24
Vvimfiles/ftplugin/tex_local.vim
p80
sg10
Nsg26
Nsg27
g28
sg29
Nsbag1
(g19
g3
NtRp81
(dp82
g22
Nsg23
Nsg24
Vvimfiles/ftplugin/xml_local.vim
p83
sg10
Nsg26
Nsg27
g28
sg29
Nsbag1
(g19
g3
NtRp84
(dp85
g22
Nsg23
Nsg24
Vvimfiles/ftplugin/xslt_local.vim
p86
sg10
Nsg26
Nsg27
g28
sg29
Nsbag1
(g19
g3
NtRp87
(dp88
g22
Nsg23
Nsg24
Vvimfiles/ftplugin/yaml_local.vim
p89
sg10
Nsg26
Nsg27
g28
sg29
NsbasS'revision'
p90
Veric-20070118034155-696fa4980da71ec8
p91
sb.ccopy_reg
_reconstructor
p1
(cvcpx.changes
Changeset
p2
c__builtin__
object
p3
NtRp4
(dp5
S'log'
p6
S'[project @ 47]\nadded bak script'
p7
sS'author'
p8
S'eric'
p9
sS'unidiff'
p10
NsS'tags'
p11
NsS'_Changeset__date'
p12
cdatetime
datetime
p13
(S'\x07\xd7\x01\x12\x0329\x00\x00\x00'
cvcpx.tzinfo
_UTC
p14
(tRp15
tRp16
sS'entries'
p17
(lp18
g1
(cvcpx.changes
ChangesetEntry
p19
g3
NtRp20
(dp21
S'status'
p22
NsS'old_revision'
p23
NsS'name'
p24
Vbin/bak.py
p25
sg10
NsS'new_revision'
p26
NsS'action_kind'
p27
S'ADD'
p28
sS'old_name'
p29
Nsbag1
(g19
g3
NtRp30
(dp31
g22
Nsg23
Nsg24
Vbin/janitor.py
p32
sg10
Nsg26
Nsg27
S'UPD'
p33
sg29
NsbasS'revision'
p34
Veric-20070118035057-04bbced811bf79bf
p35
sb.ccopy_reg
_reconstructor
p1
(cvcpx.changes
Changeset
p2
c__builtin__
object
p3
NtRp4
(dp5
S'log'
p6
S'[project @ 48]\ntodo 17 jan 2007'
p7
sS'author'
p8
S'eric'
p9
sS'unidiff'
p10
NsS'tags'
p11
NsS'_Changeset__date'
p12
cdatetime
datetime
p13
(S'\x07\xd7\x01\x12\x033(\x00\x00\x00'
cvcpx.tzinfo
_UTC
p14
(tRp15
tRp16
sS'entries'
p17
(lp18
g1
(cvcpx.changes
ChangesetEntry
p19
g3
NtRp20
(dp21
S'status'
p22
NsS'old_revision'
p23
NsS'name'
p24
Vgtd/todo.txt
p25
sg10
NsS'new_revision'
p26
NsS'action_kind'
p27
S'UPD'
p28
sS'old_name'
p29
NsbasS'revision'
p30
Veric-20070118035140-e4114d6b61861104
p31
sb.ccopy_reg
_reconstructor
p1
(cvcpx.changes
Changeset
p2
c__builtin__
object
p3
NtRp4
(dp5
S'log'
p6
S'[project @ 49]\nfixed bugs in janitor script'
p7
sS'author'
p8
S'eric'
p9
sS'unidiff'
p10
NsS'tags'
p11
NsS'_Changeset__date'
p12
cdatetime
datetime
p13
(S'\x07\xd7\x01\x12\x038\n\x00\x00\x00'
cvcpx.tzinfo
_UTC
p14
(tRp15
tRp16
sS'entries'
p17
(lp18
g1
(cvcpx.changes
ChangesetEntry
p19
g3
NtRp20
(dp21
S'status'
p22
NsS'old_revision'
p23
NsS'name'
p24
Vbin/janitor.py
p25
sg10
NsS'new_revision'
p26
NsS'action_kind'
p27
S'UPD'
p28
sS'old_name'
p29
Nsbag1
(g19
g3
NtRp30
(dp31
g22
Nsg23
Nsg24
Vgtd/todo.txt
p32
sg10
Nsg26
Nsg27
g28
sg29
NsbasS'revision'
p33
Veric-20070118035610-2e9824ee3027eeb7
p34
sb.ccopy_reg
_reconstructor
p1
(cvcpx.changes
Changeset
p2
c__builtin__
object
p3
NtRp4
(dp5
S'log'
p6
S'[project @ 50]\ntodo worklog 18 jan 2007'
p7
sS'author'
p8
S'eric'
p9
sS'unidiff'
p10
NsS'tags'
p11
NsS'_Changeset__date'
p12
cdatetime
datetime
p13
(S'\x07\xd7\x01\x12\x164\x17\x00\x00\x00'
cvcpx.tzinfo
_UTC
p14
(tRp15
tRp16
sS'entries'
p17
(lp18
g1
(cvcpx.changes
ChangesetEntry
p19
g3
NtRp20
(dp21
S'status'
p22
NsS'old_revision'
p23
NsS'name'
p24
Vgtd/todo.txt
p25
sg10
NsS'new_revision'
p26
NsS'action_kind'
p27
S'UPD'
p28
sS'old_name'
p29
Nsbag1
(g19
g3
NtRp30
(dp31
g22
Nsg23
Nsg24
Vgtd/worklog.txt
p32
sg10
Nsg26
Nsg27
g28
sg29
NsbasS'revision'
p33
Veric-20070118225223-6bc778f40971860c
p34
sb.ccopy_reg
_reconstructor
p1
(cvcpx.changes
Changeset
p2
c__builtin__
object
p3
NtRp4
(dp5
S'log'
p6
S'[project @ 52]\nvim added f5 key to toggle file tree'
p7
sS'author'
p8
S'eric'
p9
sS'unidiff'
p10
NsS'tags'
p11
NsS'_Changeset__date'
p12
cdatetime
datetime
p13
(S'\x07\xd7\x01\x13\r\x13"\x00\x00\x00'
cvcpx.tzinfo
_UTC
p14
(tRp15
tRp16
sS'entries'
p17
(lp18
g1
(cvcpx.changes
ChangesetEntry
p19
g3
NtRp20
(dp21
S'status'
p22
NsS'old_revision'
p23
NsS'name'
p24
V_vimrc
p25
sg10
NsS'new_revision'
p26
NsS'action_kind'
p27
S'UPD'
p28
sS'old_name'
p29
NsbasS'revision'
p30
Veric-20070119131934-3fd0dd8572b0fe25
p31
sb.ccopy_reg
_reconstructor
p1
(cvcpx.changes
Changeset
p2
c__builtin__
object
p3
NtRp4
(dp5
S'log'
p6
S'[project @ 53]\nweekly review'
p7
sS'author'
p8
S'eric'
p9
sS'unidiff'
p10
NsS'tags'
p11
NsS'_Changeset__date'
p12
cdatetime
datetime
p13
(S'\x07\xd7\x01\x13\x14\x128\x00\x00\x00'
cvcpx.tzinfo
_UTC
p14
(tRp15
tRp16
sS'entries'
p17
(lp18
g1
(cvcpx.changes
ChangesetEntry
p19
g3
NtRp20
(dp21
S'status'
p22
NsS'old_revision'
p23
NsS'name'
p24
Vgtd/done.txt
p25
sg10
NsS'new_revision'
p26
NsS'action_kind'
p27
S'UPD'
p28
sS'old_name'
p29
Nsbag1
(g19
g3
NtRp30
(dp31
g22
Nsg23
Nsg24
Vgtd/report.txt
p32
sg10
Nsg26
Nsg27
g28
sg29
Nsbag1
(g19
g3
NtRp33
(dp34
g22
Nsg23
Nsg24
Vgtd/todo.txt
p35
sg10
Nsg26
Nsg27
g28
sg29
Nsbag1
(g19
g3
NtRp36
(dp37
g22
Nsg23
Nsg24
Vgtd/worklog.txt
p38
sg10
Nsg26
Nsg27
g28
sg29
NsbasS'revision'
p39
Veric-20070119201856-ab19bc1ea137902a
p40
sb.ccopy_reg
_reconstructor
p1
(cvcpx.changes
Changeset
p2
c__builtin__
object
p3
NtRp4
(dp5
S'log'
p6
S'[project @ 54]\ntodo worklog 19 jan 2007'
p7
sS'author'
p8
S'eric'
p9
sS'unidiff'
p10
NsS'tags'
p11
NsS'_Changeset__date'
p12
cdatetime
datetime
p13
(S'\x07\xd7\x01\x13\x17\x1d*\x00\x00\x00'
cvcpx.tzinfo
_UTC
p14
(tRp15
tRp16
sS'entries'
p17
(lp18
g1
(cvcpx.changes
ChangesetEntry
p19
g3
NtRp20
(dp21
S'status'
p22
NsS'old_revision'
p23
NsS'name'
p24
Vgtd/todo.txt
p25
sg10
NsS'new_revision'
p26
NsS'action_kind'
p27
S'UPD'
p28
sS'old_name'
p29
Nsbag1
(g19
g3
NtRp30
(dp31
g22
Nsg23
Nsg24
Vgtd/worklog.txt
p32
sg10
Nsg26
Nsg27
g28
sg29
NsbasS'revision'
p33
Veric-20070119232942-0b721ed132ef24fa
p34
sb.ccopy_reg
_reconstructor
p1
(cvcpx.changes
Changeset
p2
c__builtin__
object
p3
NtRp4
(dp5
S'log'
p6
S'[project @ 55]\ntodo 21 jan 2007'
p7
sS'author'
p8
S'eric'
p9
sS'unidiff'
p10
NsS'tags'
p11
NsS'_Changeset__date'
p12
cdatetime
datetime
p13
(S'\x07\xd7\x01\x15\x0f$6\x00\x00\x00'
cvcpx.tzinfo
_UTC
p14
(tRp15
tRp16
sS'entries'
p17
(lp18
g1
(cvcpx.changes
ChangesetEntry
p19
g3
NtRp20
(dp21
S'status'
p22
NsS'old_revision'
p23
NsS'name'
p24
Vgtd/todo.txt
p25
sg10
NsS'new_revision'
p26
NsS'action_kind'
p27
S'UPD'
p28
sS'old_name'
p29
NsbasS'revision'
p30
Veric-20070121153654-12ef869a0bc40c22
p31
sb.ccopy_reg
_reconstructor
p1
(cvcpx.changes
Changeset
p2
c__builtin__
object
p3
NtRp4
(dp5
S'log'
p6
S'[project @ 56]\ntodo worklog 23 jan 2007'
p7
sS'author'
p8
S'eric'
p9
sS'unidiff'
p10
NsS'tags'
p11
NsS'_Changeset__date'
p12
cdatetime
datetime
p13
(S'\x07\xd7\x01\x17\x179\x0c\x00\x00\x00'
cvcpx.tzinfo
_UTC
p14
(tRp15
tRp16
sS'entries'
p17
(lp18
g1
(cvcpx.changes
ChangesetEntry
p19
g3
NtRp20
(dp21
S'status'
p22
NsS'old_revision'
p23
NsS'name'
p24
Vgtd/todo.txt
p25
sg10
NsS'new_revision'
p26
NsS'action_kind'
p27
S'UPD'
p28
sS'old_name'
p29
Nsbag1
(g19
g3
NtRp30
(dp31
g22
Nsg23
Nsg24
Vgtd/worklog.txt
p32
sg10
Nsg26
Nsg27
g28
sg29
NsbasS'revision'
p33
Veric-20070123235712-10ed3fb9b606b789
p34
sb.ccopy_reg
_reconstructor
p1
(cvcpx.changes
Changeset
p2
c__builtin__
object
p3
NtRp4
(dp5
S'log'
p6
S'[project @ 59]\nadded cygwin gvim script'
p7
sS'author'
p8
S'eric'
p9
sS'unidiff'
p10
NsS'tags'
p11
NsS'_Changeset__date'
p12
cdatetime
datetime
p13
(S'\x07\xd7\x01\x18\x11\x00 \x00\x00\x00'
cvcpx.tzinfo
_UTC
p14
(tRp15
tRp16
sS'entries'
p17
(lp18
g1
(cvcpx.changes
ChangesetEntry
p19
g3
NtRp20
(dp21
S'status'
p22
NsS'old_revision'
p23
NsS'name'
p24
Vbin/gvim
p25
sg10
NsS'new_revision'
p26
NsS'action_kind'
p27
S'ADD'
p28
sS'old_name'
p29
NsbasS'revision'
p30
Veric-20070124170032-e2498f77d2200748
p31
sb.ccopy_reg
_reconstructor
p1
(cvcpx.changes
Changeset
p2
c__builtin__
object
p3
NtRp4
(dp5
S'log'
p6
S'[project @ 61]\ntodo worklog 24 jan 2007'
p7
sS'author'
p8
S'eric'
p9
sS'unidiff'
p10
NsS'tags'
p11
NsS'_Changeset__date'
p12
cdatetime
datetime
p13
(S'\x07\xd7\x01\x18\x17\x06&\x00\x00\x00'
cvcpx.tzinfo
_UTC
p14
(tRp15
tRp16
sS'entries'
p17
(lp18
g1
(cvcpx.changes
ChangesetEntry
p19
g3
NtRp20
(dp21
S'status'
p22
NsS'old_revision'
p23
NsS'name'
p24
Vgtd/todo.txt
p25
sg10
NsS'new_revision'
p26
NsS'action_kind'
p27
S'UPD'
p28
sS'old_name'
p29
Nsbag1
(g19
g3
NtRp30
(dp31
g22
Nsg23
Nsg24
Vgtd/worklog.txt
p32
sg10
Nsg26
Nsg27
g28
sg29
NsbasS'revision'
p33
Veric-20070124230638-0b64f8d5935ca5b6
p34
sb.ccopy_reg
_reconstructor
p1
(cvcpx.changes
Changeset
p2
c__builtin__
object
p3
NtRp4
(dp5
S'log'
p6
S'[project @ 62]\ntodo 24 jan 2007'
p7
sS'author'
p8
S'eric'
p9
sS'unidiff'
p10
NsS'tags'
p11
NsS'_Changeset__date'
p12
cdatetime
datetime
p13
(S'\x07\xd7\x01\x19\x03\x11\x07\x00\x00\x00'
cvcpx.tzinfo
_UTC
p14
(tRp15
tRp16
sS'entries'
p17
(lp18
g1
(cvcpx.changes
ChangesetEntry
p19
g3
NtRp20
(dp21
S'status'
p22
NsS'old_revision'
p23
NsS'name'
p24
Vgtd/todo.txt
p25
sg10
NsS'new_revision'
p26
NsS'action_kind'
p27
S'UPD'
p28
sS'old_name'
p29
NsbasS'revision'
p30
Veric-20070125031707-914f57b9eac33aaf
p31
sb.ccopy_reg
_reconstructor
p1
(cvcpx.changes
Changeset
p2
c__builtin__
object
p3
NtRp4
(dp5
S'log'
p6
S'[project @ 63]\nearly 25 jan 2007'
p7
sS'author'
p8
S'eric'
p9
sS'unidiff'
p10
NsS'tags'
p11
NsS'_Changeset__date'
p12
cdatetime
datetime
p13
(S'\x07\xd7\x01\x19\r\x1d/\x00\x00\x00'
cvcpx.tzinfo
_UTC
p14
(tRp15
tRp16
sS'entries'
p17
(lp18
g1
(cvcpx.changes
ChangesetEntry
p19
g3
NtRp20
(dp21
S'status'
p22
NsS'old_revision'
p23
NsS'name'
p24
Vgtd/todo.txt
p25
sg10
NsS'new_revision'
p26
NsS'action_kind'
p27
S'UPD'
p28
sS'old_name'
p29
NsbasS'revision'
p30
Veric-20070125132947-acca22d19db4e866
p31
sb.ccopy_reg
_reconstructor
p1
(cvcpx.changes
Changeset
p2
c__builtin__
object
p3
NtRp4
(dp5
S'log'
p6
S'[project @ 64]\ntodo worklog 25 jan 2007'
p7
sS'author'
p8
S'eric'
p9
sS'unidiff'
p10
NsS'tags'
p11
NsS'_Changeset__date'
p12
cdatetime
datetime
p13
(S'\x07\xd7\x01\x19\x17\x170\x00\x00\x00'
cvcpx.tzinfo
_UTC
p14
(tRp15
tRp16
sS'entries'
p17
(lp18
g1
(cvcpx.changes
ChangesetEntry
p19
g3
NtRp20
(dp21
S'status'
p22
NsS'old_revision'
p23
NsS'name'
p24
Vgtd/todo.txt
p25
sg10
NsS'new_revision'
p26
NsS'action_kind'
p27
S'UPD'
p28
sS'old_name'
p29
Nsbag1
(g19
g3
NtRp30
(dp31
g22
Nsg23
Nsg24
Vgtd/worklog.txt
p32
sg10
Nsg26
Nsg27
g28
sg29
NsbasS'revision'
p33
Veric-20070125232348-72c09e29236eccce
p34
sb.ccopy_reg
_reconstructor
p1
(cvcpx.changes
Changeset
p2
c__builtin__
object
p3
NtRp4
(dp5
S'log'
p6
S'[project @ 65]\nAdded svnprops.py to set svn properties on committed files.'
p7
sS'author'
p8
S'eric'
p9
sS'unidiff'
p10
NsS'tags'
p11
NsS'_Changeset__date'
p12
cdatetime
datetime
p13
(S'\x07\xd7\x01\x1a\x0f\x07\x0b\x00\x00\x00'
cvcpx.tzinfo
_UTC
p14
(tRp15
tRp16
sS'entries'
p17
(lp18
g1
(cvcpx.changes
ChangesetEntry
p19
g3
NtRp20
(dp21
S'status'
p22
NsS'old_revision'
p23
NsS'name'
p24
Vbin/svnprops.py
p25
sg10
NsS'new_revision'
p26
NsS'action_kind'
p27
S'ADD'
p28
sS'old_name'
p29
NsbasS'revision'
p30
Veric-20070126150711-9ef50c591d02a3af
p31
sb.ccopy_reg
_reconstructor
p1
(cvcpx.changes
Changeset
p2
c__builtin__
object
p3
NtRp4
(dp5
S'log'
p6
S'[project @ 66]\nbin set revision and id keyword properties on python scripts'
p7
sS'author'
p8
S'eric'
p9
sS'unidiff'
p10
NsS'tags'
p11
NsS'_Changeset__date'
p12
cdatetime
datetime
p13
(S'\x07\xd7\x01\x1a\x0f\x080\x00\x00\x00'
cvcpx.tzinfo
_UTC
p14
(tRp15
tRp16
sS'entries'
p17
(lp18
g1
(cvcpx.changes
ChangesetEntry
p19
g3
NtRp20
(dp21
S'status'
p22
NsS'old_revision'
p23
NsS'name'
p24
Vbin/bak.py
p25
sg10
NsS'new_revision'
p26
NsS'action_kind'
p27
S'UPD'
p28
sS'old_name'
p29
Nsbag1
(g19
g3
NtRp30
(dp31
g22
Nsg23
Nsg24
Vbin/janitor.py
p32
sg10
Nsg26
Nsg27
g28
sg29
NsbasS'revision'
p33
Veric-20070126150848-4e7f51badc66828a
p34
sb.ccopy_reg
_reconstructor
p1
(cvcpx.changes
Changeset
p2
c__builtin__
object
p3
NtRp4
(dp5
S'log'
p6
S'[project @ 67]\nbin added revision tags to python scripts'
p7
sS'author'
p8
S'eric'
p9
sS'unidiff'
p10
NsS'tags'
p11
NsS'_Changeset__date'
p12
cdatetime
datetime
p13
(S'\x07\xd7\x01\x1a\x0f\n\x1c\x00\x00\x00'
cvcpx.tzinfo
_UTC
p14
(tRp15
tRp16
sS'entries'
p17
(lp18
g1
(cvcpx.changes
ChangesetEntry
p19
g3
NtRp20
(dp21
S'status'
p22
NsS'old_revision'
p23
NsS'name'
p24
Vbin/avgdirsize.py
p25
sg10
NsS'new_revision'
p26
NsS'action_kind'
p27
S'UPD'
p28
sS'old_name'
p29
Nsbag1
(g19
g3
NtRp30
(dp31
g22
Nsg23
Nsg24
Vbin/cptypes.py
p32
sg10
Nsg26
Nsg27
g28
sg29
Nsbag1
(g19
g3
NtRp33
(dp34
g22
Nsg23
Nsg24
Vbin/pdftotext.py
p35
sg10
Nsg26
Nsg27
g28
sg29
Nsbag1
(g19
g3
NtRp36
(dp37
g22
Nsg23
Nsg24
Vbin/svnprops.py
p38
sg10
Nsg26
Nsg27
g28
sg29
NsbasS'revision'
p39
Veric-20070126151028-d33091bb0f419b26
p40
sb.ccopy_reg
_reconstructor
p1
(cvcpx.changes
Changeset
p2
c__builtin__
object
p3
NtRp4
(dp5
S'log'
p6
S'[project @ 68]\nweekly review 26 jan 2007'
p7
sS'author'
p8
S'eric'
p9
sS'unidiff'
p10
NsS'tags'
p11
NsS'_Changeset__date'
p12
cdatetime
datetime
p13
(S'\x07\xd7\x01\x1a\x15!#\x00\x00\x00'
cvcpx.tzinfo
_UTC
p14
(tRp15
tRp16
sS'entries'
p17
(lp18
g1
(cvcpx.changes
ChangesetEntry
p19
g3
NtRp20
(dp21
S'status'
p22
NsS'old_revision'
p23
NsS'name'
p24
Vgtd/done.txt
p25
sg10
NsS'new_revision'
p26
NsS'action_kind'
p27
S'UPD'
p28
sS'old_name'
p29
Nsbag1
(g19
g3
NtRp30
(dp31
g22
Nsg23
Nsg24
Vgtd/report.txt
p32
sg10
Nsg26
Nsg27
g28
sg29
Nsbag1
(g19
g3
NtRp33
(dp34
g22
Nsg23
Nsg24
Vgtd/todo.txt
p35
sg10
Nsg26
Nsg27
g28
sg29
Nsbag1
(g19
g3
NtRp36
(dp37
g22
Nsg23
Nsg24
Vgtd/worklog.txt
p38
sg10
Nsg26
Nsg27
g28
sg29
NsbasS'revision'
p39
Veric-20070126213335-b5fb8eb9d18dd9b1
p40
sb.ccopy_reg
_reconstructor
p1
(cvcpx.changes
Changeset
p2
c__builtin__
object
p3
NtRp4
(dp5
S'log'
p6
S'[project @ 69]\ntodo 26 jan 2007'
p7
sS'author'
p8
S'eric'
p9
sS'unidiff'
p10
NsS'tags'
p11
NsS'_Changeset__date'
p12
cdatetime
datetime
p13
(S'\x07\xd7\x01\x1a\x16\n\x0c\x00\x00\x00'
cvcpx.tzinfo
_UTC
p14
(tRp15
tRp16
sS'entries'
p17
(lp18
g1
(cvcpx.changes
ChangesetEntry
p19
g3
NtRp20
(dp21
S'status'
p22
NsS'old_revision'
p23
NsS'name'
p24
Vgtd/worklog.txt
p25
sg10
NsS'new_revision'
p26
NsS'action_kind'
p27
S'UPD'
p28
sS'old_name'
p29
NsbasS'revision'
p30
Veric-20070126221012-c8966f6c5f1cf5ef
p31
sb.ccopy_reg
_reconstructor
p1
(cvcpx.changes
Changeset
p2
c__builtin__
object
p3
NtRp4
(dp5
S'log'
p6
S'[project @ 70]\nupdated sbcl location for inferior lisp'
p7
sS'author'
p8
S'eric'
p9
sS'unidiff'
p10
NsS'tags'
p11
NsS'_Changeset__date'
p12
cdatetime
datetime
p13
(S'\x07\xd7\x01\x1d\x03\x11\x1d\x00\x00\x00'
cvcpx.tzinfo
_UTC
p14
(tRp15
tRp16
sS'entries'
p17
(lp18
g1
(cvcpx.changes
ChangesetEntry
p19
g3
NtRp20
(dp21
S'status'
p22
NsS'old_revision'
p23
NsS'name'
p24
V.emacs
p25
sg10
NsS'new_revision'
p26
NsS'action_kind'
p27
S'UPD'
p28
sS'old_name'
p29
NsbasS'revision'
p30
Veric-20070129031729-70e3b923218b903a
p31
sb.ccopy_reg
_reconstructor
p1
(cvcpx.changes
Changeset
p2
c__builtin__
object
p3
NtRp4
(dp5
S'log'
p6
S'[project @ 71]\ntodo 28 jan 2007'
p7
sS'author'
p8
S'eric'
p9
sS'unidiff'
p10
NsS'tags'
p11
NsS'_Changeset__date'
p12
cdatetime
datetime
p13
(S'\x07\xd7\x01\x1d\x03\x110\x00\x00\x00'
cvcpx.tzinfo
_UTC
p14
(tRp15
tRp16
sS'entries'
p17
(lp18
g1
(cvcpx.changes
ChangesetEntry
p19
g3
NtRp20
(dp21
S'status'
p22
NsS'old_revision'
p23
NsS'name'
p24
Vgtd/todo.txt
p25
sg10
NsS'new_revision'
p26
NsS'action_kind'
p27
S'UPD'
p28
sS'old_name'
p29
NsbasS'revision'
p30
Veric-20070129031748-88437f8448edd4ba
p31
sb.ccopy_reg
_reconstructor
p1
(cvcpx.changes
Changeset
p2
c__builtin__
object
p3
NtRp4
(dp5
S'log'
p6
S'[project @ 72]\ntodo 29 jan 2007'
p7
sS'author'
p8
S'eric'
p9
sS'unidiff'
p10
NsS'tags'
p11
NsS'_Changeset__date'
p12
cdatetime
datetime
p13
(S'\x07\xd7\x01\x1e\x027\x1c\x00\x00\x00'
cvcpx.tzinfo
_UTC
p14
(tRp15
tRp16
sS'entries'
p17
(lp18
g1
(cvcpx.changes
ChangesetEntry
p19
g3
NtRp20
(dp21
S'status'
p22
NsS'old_revision'
p23
NsS'name'
p24
Vgtd/todo.txt
p25
sg10
NsS'new_revision'
p26
NsS'action_kind'
p27
S'UPD'
p28
sS'old_name'
p29
NsbasS'revision'
p30
Veric-20070130025528-5482a8641469e01a
p31
sb.ccopy_reg
_reconstructor
p1
(cvcpx.changes
Changeset
p2
c__builtin__
object
p3
NtRp4
(dp5
S'log'
p6
S'[project @ 77]\ntodo worklog 30 jan 2007'
p7
sS'author'
p8
S'eric'
p9
sS'unidiff'
p10
NsS'tags'
p11
NsS'_Changeset__date'
p12
cdatetime
datetime
p13
(S'\x07\xd7\x01\x1e\x17\x13\x16\x00\x00\x00'
cvcpx.tzinfo
_UTC
p14
(tRp15
tRp16
sS'entries'
p17
(lp18
g1
(cvcpx.changes
ChangesetEntry
p19
g3
NtRp20
(dp21
S'status'
p22
NsS'old_revision'
p23
NsS'name'
p24
Vgtd/todo.txt
p25
sg10
NsS'new_revision'
p26
NsS'action_kind'
p27
S'UPD'
p28
sS'old_name'
p29
Nsbag1
(g19
g3
NtRp30
(dp31
g22
Nsg23
Nsg24
Vgtd/worklog.txt
p32
sg10
Nsg26
Nsg27
g28
sg29
NsbasS'revision'
p33
Veric-20070130231922-0e4add6ddbefc658
p34
sb.ccopy_reg
_reconstructor
p1
(cvcpx.changes
Changeset
p2
c__builtin__
object
p3
NtRp4
(dp5
S'log'
p6
S'[project @ 78]\nadded bazaar vim syntax file'
p7
sS'author'
p8
S'eric'
p9
sS'unidiff'
p10
NsS'tags'
p11
NsS'_Changeset__date'
p12
cdatetime
datetime
p13
(S'\x07\xd7\x01\x1f\x0f-\x1b\x00\x00\x00'
cvcpx.tzinfo
_UTC
p14
(tRp15
tRp16
sS'entries'
p17
(lp18
g1
(cvcpx.changes
ChangesetEntry
p19
g3
NtRp20
(dp21
S'status'
p22
NsS'old_revision'
p23
NsS'name'
p24
Vvimfiles/syntax/bzr.vim
p25
sg10
NsS'new_revision'
p26
NsS'action_kind'
p27
S'ADD'
p28
sS'old_name'
p29
NsbasS'revision'
p30
Veric-20070131154527-b9e60b302f5a3543
p31
sb.ccopy_reg
_reconstructor
p1
(cvcpx.changes
Changeset
p2
c__builtin__
object
p3
NtRp4
(dp5
S'log'
p6
S'[project @ 79]\ntodo mid 31 jan 2007'
p7
sS'author'
p8
S'eric'
p9
sS'unidiff'
p10
NsS'tags'
p11
NsS'_Changeset__date'
p12
cdatetime
datetime
p13
(S'\x07\xd7\x01\x1f\x15\x1f\x1b\x00\x00\x00'
cvcpx.tzinfo
_UTC
p14
(tRp15
tRp16
sS'entries'
p17
(lp18
g1
(cvcpx.changes
ChangesetEntry
p19
g3
NtRp20
(dp21
S'status'
p22
NsS'old_revision'
p23
NsS'name'
p24
Vgtd/todo.txt
p25
sg10
NsS'new_revision'
p26
NsS'action_kind'
p27
S'UPD'
p28
sS'old_name'
p29
NsbasS'revision'
p30
Veric-20070131213127-cfd7918c19719c29
p31
sb.ccopy_reg
_reconstructor
p1
(cvcpx.changes
Changeset
p2
c__builtin__
object
p3
NtRp4
(dp5
S'log'
p6
S'[project @ 80]\nworklog 31 jan 2007'
p7
sS'author'
p8
S'eric'
p9
sS'unidiff'
p10
NsS'tags'
p11
NsS'_Changeset__date'
p12
cdatetime
datetime
p13
(S'\x07\xd7\x01\x1f\x162\x16\x00\x00\x00'
cvcpx.tzinfo
_UTC
p14
(tRp15
tRp16
sS'entries'
p17
(lp18
g1
(cvcpx.changes
ChangesetEntry
p19
g3
NtRp20
(dp21
S'status'
p22
NsS'old_revision'
p23
NsS'name'
p24
Vgtd/worklog.txt
p25
sg10
NsS'new_revision'
p26
NsS'action_kind'
p27
S'UPD'
p28
sS'old_name'
p29
NsbasS'revision'
p30
Veric-20070131225022-6e87f23149b60934
p31
sb.ccopy_reg
_reconstructor
p1
(cvcpx.changes
Changeset
p2
c__builtin__
object
p3
NtRp4
(dp5
S'log'
p6
S'[project @ 81]\ntodo worklog 1 feb 2007'
p7
sS'author'
p8
S'eric'
p9
sS'unidiff'
p10
NsS'tags'
p11
NsS'_Changeset__date'
p12
cdatetime
datetime
p13
(S'\x07\xd7\x02\x01\x16\x045\x00\x00\x00'
cvcpx.tzinfo
_UTC
p14
(tRp15
tRp16
sS'entries'
p17
(lp18
g1
(cvcpx.changes
ChangesetEntry
p19
g3
NtRp20
(dp21
S'status'
p22
NsS'old_revision'
p23
NsS'name'
p24
Vgtd/todo.txt
p25
sg10
NsS'new_revision'
p26
NsS'action_kind'
p27
S'UPD'
p28
sS'old_name'
p29
Nsbag1
(g19
g3
NtRp30
(dp31
g22
Nsg23
Nsg24
Vgtd/worklog.txt
p32
sg10
Nsg26
Nsg27
g28
sg29
NsbasS'revision'
p33
Veric-20070201220453-a68ada7c8eca60ea
p34
sb.ccopy_reg
_reconstructor
p1
(cvcpx.changes
Changeset
p2
c__builtin__
object
p3
NtRp4
(dp5
S'log'
p6
S'[project @ 82]\nweekly review 2 feb 2007'
p7
sS'author'
p8
S'eric'
p9
sS'unidiff'
p10
NsS'tags'
p11
NsS'_Changeset__date'
p12
cdatetime
datetime
p13
(S'\x07\xd7\x02\x02\x13\x0f-\x00\x00\x00'
cvcpx.tzinfo
_UTC
p14
(tRp15
tRp16
sS'entries'
p17
(lp18
g1
(cvcpx.changes
ChangesetEntry
p19
g3
NtRp20
(dp21
S'status'
p22
NsS'old_revision'
p23
NsS'name'
p24
Vgtd/done.txt
p25
sg10
NsS'new_revision'
p26
NsS'action_kind'
p27
S'UPD'
p28
sS'old_name'
p29
Nsbag1
(g19
g3
NtRp30
(dp31
g22
Nsg23
Nsg24
Vgtd/report.txt
p32
sg10
Nsg26
Nsg27
g28
sg29
Nsbag1
(g19
g3
NtRp33
(dp34
g22
Nsg23
Nsg24
Vgtd/todo.txt
p35
sg10
Nsg26
Nsg27
g28
sg29
Nsbag1
(g19
g3
NtRp36
(dp37
g22
Nsg23
Nsg24
Vgtd/worklog.txt
p38
sg10
Nsg26
Nsg27
g28
sg29
NsbasS'revision'
p39
Veric-20070202191545-e8b4ab2aadda687f
p40
sb.ccopy_reg
_reconstructor
p1
(cvcpx.changes
Changeset
p2
c__builtin__
object
p3
NtRp4
(dp5
S'log'
p6
S'[project @ 83]\nadded minibufexpl.vim'
p7
sS'author'
p8
S'eric'
p9
sS'unidiff'
p10
NsS'tags'
p11
NsS'_Changeset__date'
p12
cdatetime
datetime
p13
(S'\x07\xd7\x02\x02\x16\x1f\x01\x00\x00\x00'
cvcpx.tzinfo
_UTC
p14
(tRp15
tRp16
sS'entries'
p17
(lp18
g1
(cvcpx.changes
ChangesetEntry
p19
g3
NtRp20
(dp21
S'status'
p22
NsS'old_revision'
p23
NsS'name'
p24
Vvimfiles/plugin/minibufexpl.vim
p25
sg10
NsS'new_revision'
p26
NsS'action_kind'
p27
S'ADD'
p28
sS'old_name'
p29
NsbasS'revision'
p30
Veric-20070202223101-5fa2ea0a9eeef33a
p31
sb.ccopy_reg
_reconstructor
p1
(cvcpx.changes
Changeset
p2
c__builtin__
object
p3
NtRp4
(dp5
S'log'
p6
S'[project @ 84]\nworklog todo 2 feb 2007'
p7
sS'author'
p8
S'eric'
p9
sS'unidiff'
p10
NsS'tags'
p11
NsS'_Changeset__date'
p12
cdatetime
datetime
p13
(S'\x07\xd7\x02\x02\x16 \x1c\x00\x00\x00'
cvcpx.tzinfo
_UTC
p14
(tRp15
tRp16
sS'entries'
p17
(lp18
g1
(cvcpx.changes
ChangesetEntry
p19
g3
NtRp20
(dp21
S'status'
p22
NsS'old_revision'
p23
NsS'name'
p24
Vgtd/todo.txt
p25
sg10
NsS'new_revision'
p26
NsS'action_kind'
p27
S'UPD'
p28
sS'old_name'
p29
Nsbag1
(g19
g3
NtRp30
(dp31
g22
Nsg23
Nsg24
Vgtd/worklog.txt
p32
sg10
Nsg26
Nsg27
g28
sg29
Nsbag1
(g19
g3
NtRp33
(dp34
g22
Nsg23
Nsg24
Vvimfiles/ftplugin/cs.vim
p35
sg10
Nsg26
Nsg27
g28
sg29
NsbasS'revision'
p36
Veric-20070202223228-a948ac3c5ac28196
p37
sb.ccopy_reg
_reconstructor
p1
(cvcpx.changes
Changeset
p2
c__builtin__
object
p3
NtRp4
(dp5
S'log'
p6
S'[project @ 85]\ntodo 2 feb 2007'
p7
sS'author'
p8
S'eric'
p9
sS'unidiff'
p10
NsS'tags'
p11
NsS'_Changeset__date'
p12
cdatetime
datetime
p13
(S'\x07\xd7\x02\x03\x01"\x04\x00\x00\x00'
cvcpx.tzinfo
_UTC
p14
(tRp15
tRp16
sS'entries'
p17
(lp18
g1
(cvcpx.changes
ChangesetEntry
p19
g3
NtRp20
(dp21
S'status'
p22
NsS'old_revision'
p23
NsS'name'
p24
Vgtd/todo.txt
p25
sg10
NsS'new_revision'
p26
NsS'action_kind'
p27
S'UPD'
p28
sS'old_name'
p29
NsbasS'revision'
p30
Veric-20070203013404-4b1594ef46bc6c7b
p31
sb.ccopy_reg
_reconstructor
p1
(cvcpx.changes
Changeset
p2
c__builtin__
object
p3
NtRp4
(dp5
S'log'
p6
S'[project @ 86]\ntodo 3 feb 2007'
p7
sS'author'
p8
S'eric'
p9
sS'unidiff'
p10
NsS'tags'
p11
NsS'_Changeset__date'
p12
cdatetime
datetime
p13
(S'\x07\xd7\x02\x03\x178\x0b\x00\x00\x00'
cvcpx.tzinfo
_UTC
p14
(tRp15
tRp16
sS'entries'
p17
(lp18
g1
(cvcpx.changes
ChangesetEntry
p19
g3
NtRp20
(dp21
S'status'
p22
NsS'old_revision'
p23
NsS'name'
p24
Vgtd/todo.txt
p25
sg10
NsS'new_revision'
p26
NsS'action_kind'
p27
S'UPD'
p28
sS'old_name'
p29
NsbasS'revision'
p30
Veric-20070203235611-ca3312e9c22ff266
p31
sb.ccopy_reg
_reconstructor
p1
(cvcpx.changes
Changeset
p2
c__builtin__
object
p3
NtRp4
(dp5
S'log'
p6
S'[project @ 95]\nupdated .sbclrc'
p7
sS'author'
p8
S'eric'
p9
sS'unidiff'
p10
NsS'tags'
p11
NsS'_Changeset__date'
p12
cdatetime
datetime
p13
(S'\x07\xd7\x02\x05\x03\x0f/\x00\x00\x00'
cvcpx.tzinfo
_UTC
p14
(tRp15
tRp16
sS'entries'
p17
(lp18
g1
(cvcpx.changes
ChangesetEntry
p19
g3
NtRp20
(dp21
S'status'
p22
NsS'old_revision'
p23
NsS'name'
p24
V.sbclrc
p25
sg10
NsS'new_revision'
p26
NsS'action_kind'
p27
S'UPD'
p28
sS'old_name'
p29
NsbasS'revision'
p30
Veric-20070205031547-c17da81ad5e148bd
p31
sb.ccopy_reg
_reconstructor
p1
(cvcpx.changes
Changeset
p2
c__builtin__
object
p3
NtRp4
(dp5
S'log'
p6
S'[project @ 96]\ntodo 4 feb 2007'
p7
sS'author'
p8
S'eric'
p9
sS'unidiff'
p10
NsS'tags'
p11
NsS'_Changeset__date'
p12
cdatetime
datetime
p13
(S'\x07\xd7\x02\x05\x03#\n\x00\x00\x00'
cvcpx.tzinfo
_UTC
p14
(tRp15
tRp16
sS'entries'
p17
(lp18
g1
(cvcpx.changes
ChangesetEntry
p19
g3
NtRp20
(dp21
S'status'
p22
NsS'old_revision'
p23
NsS'name'
p24
Vgtd/todo.txt
p25
sg10
NsS'new_revision'
p26
NsS'action_kind'
p27
S'UPD'
p28
sS'old_name'
p29
NsbasS'revision'
p30
Veric-20070205033510-d0ee34c24aa422e6
p31
sb.ccopy_reg
_reconstructor
p1
(cvcpx.changes
Changeset
p2
c__builtin__
object
p3
NtRp4
(dp5
S'log'
p6
S'[project @ 97]\ntodo worklog 5 feb 2007'
p7
sS'author'
p8
S'eric'
p9
sS'unidiff'
p10
NsS'tags'
p11
NsS'_Changeset__date'
p12
cdatetime
datetime
p13
(S'\x07\xd7\x02\x05\x16\x15\x0f\x00\x00\x00'
cvcpx.tzinfo
_UTC
p14
(tRp15
tRp16
sS'entries'
p17
(lp18
g1
(cvcpx.changes
ChangesetEntry
p19
g3
NtRp20
(dp21
S'status'
p22
NsS'old_revision'
p23
NsS'name'
p24
Vgtd/todo.txt
p25
sg10
NsS'new_revision'
p26
NsS'action_kind'
p27
S'UPD'
p28
sS'old_name'
p29
Nsbag1
(g19
g3
NtRp30
(dp31
g22
Nsg23
Nsg24
Vgtd/worklog.txt
p32
sg10
Nsg26
Nsg27
g28
sg29
NsbasS'revision'
p33
Veric-20070205222115-aa0f1752cd8c8144
p34
sb.ccopy_reg
_reconstructor
p1
(cvcpx.changes
Changeset
p2
c__builtin__
object
p3
NtRp4
(dp5
S'log'
p6
S'[project @ 98]\nchanged bak.py script to handle single files'
p7
sS'author'
p8
S'eric'
p9
sS'unidiff'
p10
NsS'tags'
p11
NsS'_Changeset__date'
p12
cdatetime
datetime
p13
(S'\x07\xd7\x02\x06\x16\r\x02\x00\x00\x00'
cvcpx.tzinfo
_UTC
p14
(tRp15
tRp16
sS'entries'
p17
(lp18
g1
(cvcpx.changes
ChangesetEntry
p19
g3
NtRp20
(dp21
S'status'
p22
NsS'old_revision'
p23
NsS'name'
p24
Vbin/bak.py
p25
sg10
NsS'new_revision'
p26
NsS'action_kind'
p27
S'UPD'
p28
sS'old_name'
p29
NsbasS'revision'
p30
Veric-20070206221302-b5d86811cc832de9
p31
sb.ccopy_reg
_reconstructor
p1
(cvcpx.changes
Changeset
p2
c__builtin__
object
p3
NtRp4
(dp5
S'log'
p6
S'[project @ 99]\ndeleted mini buf explorer plugin'
p7
sS'author'
p8
S'eric'
p9
sS'unidiff'
p10
NsS'tags'
p11
NsS'_Changeset__date'
p12
cdatetime
datetime
p13
(S'\x07\xd7\x02\x06\x16\x0f\r\x00\x00\x00'
cvcpx.tzinfo
_UTC
p14
(tRp15
tRp16
sS'entries'
p17
(lp18
g1
(cvcpx.changes
ChangesetEntry
p19
g3
NtRp20
(dp21
S'status'
p22
NsS'old_revision'
p23
NsS'name'
p24
S'vimfiles/plugin/minibufexpl.vim'
p25
sg10
NsS'new_revision'
p26
NsS'action_kind'
p27
S'DEL'
p28
sS'old_name'
p29
NsbasS'revision'
p30
Veric-20070206221513-6fdb891fa0689d13
p31
sb.ccopy_reg
_reconstructor
p1
(cvcpx.changes
Changeset
p2
c__builtin__
object
p3
NtRp4
(dp5
S'log'
p6
S'[project @ 100]\ntodo worklog 6 feb 2007'
p7
sS'author'
p8
S'eric'
p9
sS'unidiff'
p10
NsS'tags'
p11
NsS'_Changeset__date'
p12
cdatetime
datetime
p13
(S'\x07\xd7\x02\x06\x16\x0f%\x00\x00\x00'
cvcpx.tzinfo
_UTC
p14
(tRp15
tRp16
sS'entries'
p17
(lp18
g1
(cvcpx.changes
ChangesetEntry
p19
g3
NtRp20
(dp21
S'status'
p22
NsS'old_revision'
p23
NsS'name'
p24
Vgtd/todo.txt
p25
sg10
NsS'new_revision'
p26
NsS'action_kind'
p27
S'UPD'
p28
sS'old_name'
p29
Nsbag1
(g19
g3
NtRp30
(dp31
g22
Nsg23
Nsg24
Vgtd/worklog.txt
p32
sg10
Nsg26
Nsg27
g28
sg29
NsbasS'revision'
p33
Veric-20070206221537-927783701d92a27e
p34
sb.ccopy_reg
_reconstructor
p1
(cvcpx.changes
Changeset
p2
c__builtin__
object
p3
NtRp4
(dp5
S'log'
p6
S'[project @ 101]\ntodo worklog early 7 feb 2007'
p7
sS'author'
p8
S'eric'
p9
sS'unidiff'
p10
NsS'tags'
p11
NsS'_Changeset__date'
p12
cdatetime
datetime
p13
(S'\x07\xd7\x02\x07\x0e\x1c3\x00\x00\x00'
cvcpx.tzinfo
_UTC
p14
(tRp15
tRp16
sS'entries'
p17
(lp18
g1
(cvcpx.changes
ChangesetEntry
p19
g3
NtRp20
(dp21
S'status'
p22
NsS'old_revision'
p23
NsS'name'
p24
Vgtd/todo.txt
p25
sg10
NsS'new_revision'
p26
NsS'action_kind'
p27
S'UPD'
p28
sS'old_name'
p29
Nsbag1
(g19
g3
NtRp30
(dp31
g22
Nsg23
Nsg24
Vgtd/worklog.txt
p32
sg10
Nsg26
Nsg27
g28
sg29
NsbasS'revision'
p33
Veric-20070207142851-14daa25e9d61704a
p34
sb.ccopy_reg
_reconstructor
p1
(cvcpx.changes
Changeset
p2
c__builtin__
object
p3
NtRp4
(dp5
S'log'
p6
S'[project @ 102]\ntodo 7 feb 2007'
p7
sS'author'
p8
S'root'
p9
sS'unidiff'
p10
NsS'tags'
p11
NsS'_Changeset__date'
p12
cdatetime
datetime
p13
(S'\x07\xd7\x02\x07\x168\x08\x00\x00\x00'
cvcpx.tzinfo
_UTC
p14
(tRp15
tRp16
sS'entries'
p17
(lp18
g1
(cvcpx.changes
ChangesetEntry
p19
g3
NtRp20
(dp21
S'status'
p22
NsS'old_revision'
p23
NsS'name'
p24
Vgtd/todo.txt
p25
sg10
NsS'new_revision'
p26
NsS'action_kind'
p27
S'UPD'
p28
sS'old_name'
p29
NsbasS'revision'
p30
Vroot-20070207225608-d6cadb272e697354
p31
sb.ccopy_reg
_reconstructor
p1
(cvcpx.changes
Changeset
p2
c__builtin__
object
p3
NtRp4
(dp5
S'log'
p6
S'removed bin gtd and vimfiles'
p7
sS'author'
p8
S'Eric Rochester <erochest@gmail.com>'
p9
sS'unidiff'
p10
NsS'tags'
p11
NsS'_Changeset__date'
p12
cdatetime
datetime
p13
(S'\x07\xd7\x02\x08\x13\x1d\x15\x03O\xa8'
cvcpx.tzinfo
FixedOffset
p14
(I-300
tRp15
tRp16
sS'entries'
p17
(lp18
g1
(cvcpx.changes
ChangesetEntry
p19
g3
NtRp20
(dp21
S'status'
p22
NsS'old_revision'
p23
NsS'name'
p24
S'bin'
p25
sg10
NsS'new_revision'
p26
NsS'action_kind'
p27
S'DEL'
p28
sS'old_name'
p29
Nsbag1
(g19
g3
NtRp30
(dp31
g22
Nsg23
Nsg24
S'bin/ERochest.TimeKeeper.Win32.exe'
p32
sg10
Nsg26
Nsg27
g28
sg29
Nsbag1
(g19
g3
NtRp33
(dp34
g22
Nsg23
Nsg24
S'bin/ERochest.TimeKeeper.dll'
p35
sg10
Nsg26
Nsg27
g28
sg29
Nsbag1
(g19
g3
NtRp36
(dp37
g22
Nsg23
Nsg24
S'bin/LiquidIcon.exe'
p38
sg10
Nsg26
Nsg27
g28
sg29
Nsbag1
(g19
g3
NtRp39
(dp40
g22
Nsg23
Nsg24
S'bin/RDNZL.dll'
p41
sg10
Nsg26
Nsg27
g28
sg29
Nsbag1
(g19
g3
NtRp42
(dp43
g22
Nsg23
Nsg24
S'bin/TwoMinutes.exe'
p44
sg10
Nsg26
Nsg27
g28
sg29
Nsbag1
(g19
g3
NtRp45
(dp46
g22
Nsg23
Nsg24
S'bin/avgdirsize.py'
p47
sg10
Nsg26
Nsg27
g28
sg29
Nsbag1
(g19
g3
NtRp48
(dp49
g22
Nsg23
Nsg24
S'bin/bak.py'
p50
sg10
Nsg26
Nsg27
g28
sg29
Nsbag1
(g19
g3
NtRp51
(dp52
g22
Nsg23
Nsg24
S'bin/birdseye.py'
p53
sg10
Nsg26
Nsg27
g28
sg29
Nsbag1
(g19
g3
NtRp54
(dp55
g22
Nsg23
Nsg24
S'bin/cptypes.py'
p56
sg10
Nsg26
Nsg27
g28
sg29
Nsbag1
(g19
g3
NtRp57
(dp58
g22
Nsg23
Nsg24
S'bin/ctags.exe'
p59
sg10
Nsg26
Nsg27
g28
sg29
Nsbag1
(g19
g3
NtRp60
(dp61
g22
Nsg23
Nsg24
S'bin/darcs.exe'
p62
sg10
Nsg26
Nsg27
g28
sg29
Nsbag1
(g19
g3
NtRp63
(dp64
g22
Nsg23
Nsg24
S'bin/diff.exe'
p65
sg10
Nsg26
Nsg27
g28
sg29
Nsbag1
(g19
g3
NtRp66
(dp67
g22
Nsg23
Nsg24
S'bin/editmoin.py'
p68
sg10
Nsg26
Nsg27
g28
sg29
Nsbag1
(g19
g3
NtRp69
(dp70
g22
Nsg23
Nsg24
S'bin/egrep.exe'
p71
sg10
Nsg26
Nsg27
g28
sg29
Nsbag1
(g19
g3
NtRp72
(dp73
g22
Nsg23
Nsg24
S'bin/gvim'
p74
sg10
Nsg26
Nsg27
g28
sg29
Nsbag1
(g19
g3
NtRp75
(dp76
g22
Nsg23
Nsg24
S'bin/janitor.py'
p77
sg10
Nsg26
Nsg27
g28
sg29
Nsbag1
(g19
g3
NtRp78
(dp79
g22
Nsg23
Nsg24
S'bin/pageant.exe'
p80
sg10
Nsg26
Nsg27
g28
sg29
Nsbag1
(g19
g3
NtRp81
(dp82
g22
Nsg23
Nsg24
S'bin/pdffonts.exe'
p83
sg10
Nsg26
Nsg27
g28
sg29
Nsbag1
(g19
g3
NtRp84
(dp85
g22
Nsg23
Nsg24
S'bin/pdfimages.exe'
p86
sg10
Nsg26
Nsg27
g28
sg29
Nsbag1
(g19
g3
NtRp87
(dp88
g22
Nsg23
Nsg24
S'bin/pdfinfo.exe'
p89
sg10
Nsg26
Nsg27
g28
sg29
Nsbag1
(g19
g3
NtRp90
(dp91
g22
Nsg23
Nsg24
S'bin/pdftk.exe'
p92
sg10
Nsg26
Nsg27
g28
sg29
Nsbag1
(g19
g3
NtRp93
(dp94
g22
Nsg23
Nsg24
S'bin/pdftoppm.exe'
p95
sg10
Nsg26
Nsg27
g28
sg29
Nsbag1
(g19
g3
NtRp96
(dp97
g22
Nsg23
Nsg24
S'bin/pdftops.exe'
p98
sg10
Nsg26
Nsg27
g28
sg29
Nsbag1
(g19
g3
NtRp99
(dp100
g22
Nsg23
Nsg24
S'bin/pdftotext.exe'
p101
sg10
Nsg26
Nsg27
g28
sg29
Nsbag1
(g19
g3
NtRp102
(dp103
g22
Nsg23
Nsg24
S'bin/pdftotext.py'
p104
sg10
Nsg26
Nsg27
g28
sg29
Nsbag1
(g19
g3
NtRp105
(dp106
g22
Nsg23
Nsg24
S'bin/puttygen.exe'
p107
sg10
Nsg26
Nsg27
g28
sg29
Nsbag1
(g19
g3
NtRp108
(dp109
g22
Nsg23
Nsg24
S'bin/scp.exe'
p110
sg10
Nsg26
Nsg27
g28
sg29
Nsbag1
(g19
g3
NtRp111
(dp112
g22
Nsg23
Nsg24
S'bin/sftp.exe'
p113
sg10
Nsg26
Nsg27
g28
sg29
Nsbag1
(g19
g3
NtRp114
(dp115
g22
Nsg23
Nsg24
S'bin/sqlite3.def'
p116
sg10
Nsg26
Nsg27
g28
sg29
Nsbag1
(g19
g3
NtRp117
(dp118
g22
Nsg23
Nsg24
S'bin/sqlite3.dll'
p119
sg10
Nsg26
Nsg27
g28
sg29
Nsbag1
(g19
g3
NtRp120
(dp121
g22
Nsg23
Nsg24
S'bin/sqlite3.exe'
p122
sg10
Nsg26
Nsg27
g28
sg29
Nsbag1
(g19
g3
NtRp123
(dp124
g22
Nsg23
Nsg24
S'bin/ssh.exe'
p125
sg10
Nsg26
Nsg27
g28
sg29
Nsbag1
(g19
g3
NtRp126
(dp127
g22
Nsg23
Nsg24
S'bin/svnprops.py'
p128
sg10
Nsg26
Nsg27
g28
sg29
Nsbag1
(g19
g3
NtRp129
(dp130
g22
Nsg23
Nsg24
S'bin/todo.bat'
p131
sg10
Nsg26
Nsg27
g28
sg29
Nsbag1
(g19
g3
NtRp132
(dp133
g22
Nsg23
Nsg24
S'bin/todo.sh'
p134
sg10
Nsg26
Nsg27
g28
sg29
Nsbag1
(g19
g3
NtRp135
(dp136
g22
Nsg23
Nsg24
S'bin/wget.exe'
p137
sg10
Nsg26
Nsg27
g28
sg29
Nsbag1
(g19
g3
NtRp138
(dp139
g22
Nsg23
Nsg24
S'gtd'
p140
sg10
Nsg26
Nsg27
g28
sg29
Nsbag1
(g19
g3
NtRp141
(dp142
g22
Nsg23
Nsg24
S'gtd/Getting Things Done - Allen, David -The Art of Stress-Free Productivity.pdf'
p143
sg10
Nsg26
Nsg27
g28
sg29
Nsbag1
(g19
g3
NtRp144
(dp145
g22
Nsg23
Nsg24
S'gtd/diyplanner'
p146
sg10
Nsg26
Nsg27
g28
sg29
Nsbag1
(g19
g3
NtRp147
(dp148
g22
Nsg23
Nsg24
S'gtd/diyplanner/diyp3_core_cl_2up.pdf'
p149
sg10
Nsg26
Nsg27
g28
sg29
Nsbag1
(g19
g3
NtRp150
(dp151
g22
Nsg23
Nsg24
S'gtd/diyplanner/diyp3_creativity_cl_2up.pdf'
p152
sg10
Nsg26
Nsg27
g28
sg29
Nsbag1
(g19
g3
NtRp153
(dp154
g22
Nsg23
Nsg24
S'gtd/diyplanner/diyp3_gtdref_cl_2up.pdf'
p155
sg10
Nsg26
Nsg27
g28
sg29
Nsbag1
(g19
g3
NtRp156
(dp157
g22
Nsg23
Nsg24
S'gtd/diyplanner/diyp3_health_cl_2up.pdf'
p158
sg10
Nsg26
Nsg27
g28
sg29
Nsbag1
(g19
g3
NtRp159
(dp160
g22
Nsg23
Nsg24
S'gtd/diyplanner/diyp3_notes_cl_2up.pdf'
p161
sg10
Nsg26
Nsg27
g28
sg29
Nsbag1
(g19
g3
NtRp162
(dp163
g22
Nsg23
Nsg24
S'gtd/done.txt'
p164
sg10
Nsg26
Nsg27
g28
sg29
Nsbag1
(g19
g3
NtRp165
(dp166
g22
Nsg23
Nsg24
S'gtd/gtd-with-gmail.pdf'
p167
sg10
Nsg26
Nsg27
g28
sg29
Nsbag1
(g19
g3
NtRp168
(dp169
g22
Nsg23
Nsg24
S'gtd/projects'
p170
sg10
Nsg26
Nsg27
g28
sg29
Nsbag1
(g19
g3
NtRp171
(dp172
g22
Nsg23
Nsg24
S'gtd/projects/someday-maybe'
p173
sg10
Nsg26
Nsg27
g28
sg29
Nsbag1
(g19
g3
NtRp174
(dp175
g22
Nsg23
Nsg24
S'gtd/report.txt'
p176
sg10
Nsg26
Nsg27
g28
sg29
Nsbag1
(g19
g3
NtRp177
(dp178
g22
Nsg23
Nsg24
S'gtd/todo.txt'
p179
sg10
Nsg26
Nsg27
g28
sg29
Nsbag1
(g19
g3
NtRp180
(dp181
g22
Nsg23
Nsg24
S'gtd/worklog.txt'
p182
sg10
Nsg26
Nsg27
g28
sg29
Nsbag1
(g19
g3
NtRp183
(dp184
g22
Nsg23
Nsg24
S'vimfiles'
p185
sg10
Nsg26
Nsg27
g28
sg29
Nsbag1
(g19
g3
NtRp186
(dp187
g22
Nsg23
Nsg24
S'vimfiles/after'
p188
sg10
Nsg26
Nsg27
g28
sg29
Nsbag1
(g19
g3
NtRp189
(dp190
g22
Nsg23
Nsg24
S'vimfiles/after/syntax'
p191
sg10
Nsg26
Nsg27
g28
sg29
Nsbag1
(g19
g3
NtRp192
(dp193
g22
Nsg23
Nsg24
S'vimfiles/after/syntax/help.vim'
p194
sg10
Nsg26
Nsg27
g28
sg29
Nsbag1
(g19
g3
NtRp195
(dp196
g22
Nsg23
Nsg24
S'vimfiles/backup'
p197
sg10
Nsg26
Nsg27
g28
sg29
Nsbag1
(g19
g3
NtRp198
(dp199
g22
Nsg23
Nsg24
S'vimfiles/backup/html_local.vim'
p200
sg10
Nsg26
Nsg27
g28
sg29
Nsbag1
(g19
g3
NtRp201
(dp202
g22
Nsg23
Nsg24
S'vimfiles/backup/xml_local.vim'
p203
sg10
Nsg26
Nsg27
g28
sg29
Nsbag1
(g19
g3
NtRp204
(dp205
g22
Nsg23
Nsg24
S'vimfiles/bitmaps'
p206
sg10
Nsg26
Nsg27
g28
sg29
Nsbag1
(g19
g3
NtRp207
(dp208
g22
Nsg23
Nsg24
S'vimfiles/bitmaps/TVO'
p209
sg10
Nsg26
Nsg27
g28
sg29
Nsbag1
(g19
g3
NtRp210
(dp211
g22
Nsg23
Nsg24
S'vimfiles/bitmaps/TVO/1.bmp'
p212
sg10
Nsg26
Nsg27
g28
sg29
Nsbag1
(g19
g3
NtRp213
(dp214
g22
Nsg23
Nsg24
S'vimfiles/bitmaps/TVO/1.xpm'
p215
sg10
Nsg26
Nsg27
g28
sg29
Nsbag1
(g19
g3
NtRp216
(dp217
g22
Nsg23
Nsg24
S'vimfiles/bitmaps/TVO/2.bmp'
p218
sg10
Nsg26
Nsg27
g28
sg29
Nsbag1
(g19
g3
NtRp219
(dp220
g22
Nsg23
Nsg24
S'vimfiles/bitmaps/TVO/2.xpm'
p221
sg10
Nsg26
Nsg27
g28
sg29
Nsbag1
(g19
g3
NtRp222
(dp223
g22
Nsg23
Nsg24
S'vimfiles/bitmaps/TVO/3.bmp'
p224
sg10
Nsg26
Nsg27
g28
sg29
Nsbag1
(g19
g3
NtRp225
(dp226
g22
Nsg23
Nsg24
S'vimfiles/bitmaps/TVO/3.xpm'
p227
sg10
Nsg26
Nsg27
g28
sg29
Nsbag1
(g19
g3
NtRp228
(dp229
g22
Nsg23
Nsg24
S'vimfiles/bitmaps/TVO/4.bmp'
p230
sg10
Nsg26
Nsg27
g28
sg29
Nsbag1
(g19
g3
NtRp231
(dp232
g22
Nsg23
Nsg24
S'vimfiles/bitmaps/TVO/4.xpm'
p233
sg10
Nsg26
Nsg27
g28
sg29
Nsbag1
(g19
g3
NtRp234
(dp235
g22
Nsg23
Nsg24
S'vimfiles/bitmaps/TVO/5.bmp'
p236
sg10
Nsg26
Nsg27
g28
sg29
Nsbag1
(g19
g3
NtRp237
(dp238
g22
Nsg23
Nsg24
S'vimfiles/bitmaps/TVO/5.xpm'
p239
sg10
Nsg26
Nsg27
g28
sg29
Nsbag1
(g19
g3
NtRp240
(dp241
g22
Nsg23
Nsg24
S'vimfiles/bitmaps/TVO/6.bmp'
p242
sg10
Nsg26
Nsg27
g28
sg29
Nsbag1
(g19
g3
NtRp243
(dp244
g22
Nsg23
Nsg24
S'vimfiles/bitmaps/TVO/6.xpm'
p245
sg10
Nsg26
Nsg27
g28
sg29
Nsbag1
(g19
g3
NtRp246
(dp247
g22
Nsg23
Nsg24
S'vimfiles/bitmaps/TVO/7.bmp'
p248
sg10
Nsg26
Nsg27
g28
sg29
Nsbag1
(g19
g3
NtRp249
(dp250
g22
Nsg23
Nsg24
S'vimfiles/bitmaps/TVO/7.xpm'
p251
sg10
Nsg26
Nsg27
g28
sg29
Nsbag1
(g19
g3
NtRp252
(dp253
g22
Nsg23
Nsg24
S'vimfiles/bitmaps/TVO/all.bmp'
p254
sg10
Nsg26
Nsg27
g28
sg29
Nsbag1
(g19
g3
NtRp255
(dp256
g22
Nsg23
Nsg24
S'vimfiles/bitmaps/TVO/all.xpm'
p257
sg10
Nsg26
Nsg27
g28
sg29
Nsbag1
(g19
g3
NtRp258
(dp259
g22
Nsg23
Nsg24
S'vimfiles/bitmaps/TVO/bodytext.bmp'
p260
sg10
Nsg26
Nsg27
g28
sg29
Nsbag1
(g19
g3
NtRp261
(dp262
g22
Nsg23
Nsg24
S'vimfiles/bitmaps/TVO/bodytext.xpm'
p263
sg10
Nsg26
Nsg27
g28
sg29
Nsbag1
(g19
g3
NtRp264
(dp265
g22
Nsg23
Nsg24
S'vimfiles/bitmaps/TVO/down.bmp'
p266
sg10
Nsg26
Nsg27
g28
sg29
Nsbag1
(g19
g3
NtRp267
(dp268
g22
Nsg23
Nsg24
S'vimfiles/bitmaps/TVO/down.xpm'
p269
sg10
Nsg26
Nsg27
g28
sg29
Nsbag1
(g19
g3
NtRp270
(dp271
g22
Nsg23
Nsg24
S'vimfiles/bitmaps/TVO/firstline.bmp'
p272
sg10
Nsg26
Nsg27
g28
sg29
Nsbag1
(g19
g3
NtRp273
(dp274
g22
Nsg23
Nsg24
S'vimfiles/bitmaps/TVO/firstline.xpm'
p275
sg10
Nsg26
Nsg27
g28
sg29
Nsbag1
(g19
g3
NtRp276
(dp277
g22
Nsg23
Nsg24
S'vimfiles/bitmaps/TVO/left.bmp'
p278
sg10
Nsg26
Nsg27
g28
sg29
Nsbag1
(g19
g3
NtRp279
(dp280
g22
Nsg23
Nsg24
S'vimfiles/bitmaps/TVO/left.xpm'
p281
sg10
Nsg26
Nsg27
g28
sg29
Nsbag1
(g19
g3
NtRp282
(dp283
g22
Nsg23
Nsg24
S'vimfiles/bitmaps/TVO/minus.bmp'
p284
sg10
Nsg26
Nsg27
g28
sg29
Nsbag1
(g19
g3
NtRp285
(dp286
g22
Nsg23
Nsg24
S'vimfiles/bitmaps/TVO/minus.xpm'
p287
sg10
Nsg26
Nsg27
g28
sg29
Nsbag1
(g19
g3
NtRp288
(dp289
g22
Nsg23
Nsg24
S'vimfiles/bitmaps/TVO/plus.bmp'
p290
sg10
Nsg26
Nsg27
g28
sg29
Nsbag1
(g19
g3
NtRp291
(dp292
g22
Nsg23
Nsg24
S'vimfiles/bitmaps/TVO/plus.xpm'
p293
sg10
Nsg26
Nsg27
g28
sg29
Nsbag1
(g19
g3
NtRp294
(dp295
g22
Nsg23
Nsg24
S'vimfiles/bitmaps/TVO/right.bmp'
p296
sg10
Nsg26
Nsg27
g28
sg29
Nsbag1
(g19
g3
NtRp297
(dp298
g22
Nsg23
Nsg24
S'vimfiles/bitmaps/TVO/right.xpm'
p299
sg10
Nsg26
Nsg27
g28
sg29
Nsbag1
(g19
g3
NtRp300
(dp301
g22
Nsg23
Nsg24
S'vimfiles/bitmaps/TVO/up.bmp'
p302
sg10
Nsg26
Nsg27
g28
sg29
Nsbag1
(g19
g3
NtRp303
(dp304
g22
Nsg23
Nsg24
S'vimfiles/bitmaps/TVO/up.xpm'
p305
sg10
Nsg26
Nsg27
g28
sg29
Nsbag1
(g19
g3
NtRp306
(dp307
g22
Nsg23
Nsg24
S'vimfiles/colors'
p308
sg10
Nsg26
Nsg27
g28
sg29
Nsbag1
(g19
g3
NtRp309
(dp310
g22
Nsg23
Nsg24
S'vimfiles/colors/aqua.vim'
p311
sg10
Nsg26
Nsg27
g28
sg29
Nsbag1
(g19
g3
NtRp312
(dp313
g22
Nsg23
Nsg24
S'vimfiles/colors/biogoo.vim'
p314
sg10
Nsg26
Nsg27
g28
sg29
Nsbag1
(g19
g3
NtRp315
(dp316
g22
Nsg23
Nsg24
S'vimfiles/colors/bluegreen.vim'
p317
sg10
Nsg26
Nsg27
g28
sg29
Nsbag1
(g19
g3
NtRp318
(dp319
g22
Nsg23
Nsg24
S'vimfiles/colors/camo.vim'
p320
sg10
Nsg26
Nsg27
g28
sg29
Nsbag1
(g19
g3
NtRp321
(dp322
g22
Nsg23
Nsg24
S'vimfiles/colors/cloudy.vim'
p323
sg10
Nsg26
Nsg27
g28
sg29
Nsbag1
(g19
g3
NtRp324
(dp325
g22
Nsg23
Nsg24
S'vimfiles/colors/darkblue2.vim'
p326
sg10
Nsg26
Nsg27
g28
sg29
Nsbag1
(g19
g3
NtRp327
(dp328
g22
Nsg23
Nsg24
S'vimfiles/colors/zenburn.vim'
p329
sg10
Nsg26
Nsg27
g28
sg29
Nsbag1
(g19
g3
NtRp330
(dp331
g22
Nsg23
Nsg24
S'vimfiles/compiler'
p332
sg10
Nsg26
Nsg27
g28
sg29
Nsbag1
(g19
g3
NtRp333
(dp334
g22
Nsg23
Nsg24
S'vimfiles/compiler/nose.vim'
p335
sg10
Nsg26
Nsg27
g28
sg29
Nsbag1
(g19
g3
NtRp336
(dp337
g22
Nsg23
Nsg24
S'vimfiles/doc'
p338
sg10
Nsg26
Nsg27
g28
sg29
Nsbag1
(g19
g3
NtRp339
(dp340
g22
Nsg23
Nsg24
S'vimfiles/doc/NERD_tree.txt'
p341
sg10
Nsg26
Nsg27
g28
sg29
Nsbag1
(g19
g3
NtRp342
(dp343
g22
Nsg23
Nsg24
S'vimfiles/doc/bufexplorer.txt'
p344
sg10
Nsg26
Nsg27
g28
sg29
Nsbag1
(g19
g3
NtRp345
(dp346
g22
Nsg23
Nsg24
S'vimfiles/doc/crefvim.txt'
p347
sg10
Nsg26
Nsg27
g28
sg29
Nsbag1
(g19
g3
NtRp348
(dp349
g22
Nsg23
Nsg24
S'vimfiles/doc/crefvimdoc.txt'
p350
sg10
Nsg26
Nsg27
g28
sg29
Nsbag1
(g19
g3
NtRp351
(dp352
g22
Nsg23
Nsg24
S'vimfiles/doc/dbext.txt'
p353
sg10
Nsg26
Nsg27
g28
sg29
Nsbag1
(g19
g3
NtRp354
(dp355
g22
Nsg23
Nsg24
S'vimfiles/doc/matchit.txt'
p356
sg10
Nsg26
Nsg27
g28
sg29
Nsbag1
(g19
g3
NtRp357
(dp358
g22
Nsg23
Nsg24
S'vimfiles/doc/otl.txt'
p359
sg10
Nsg26
Nsg27
g28
sg29
Nsbag1
(g19
g3
NtRp360
(dp361
g22
Nsg23
Nsg24
S'vimfiles/doc/project.txt'
p362
sg10
Nsg26
Nsg27
g28
sg29
Nsbag1
(g19
g3
NtRp363
(dp364
g22
Nsg23
Nsg24
S'vimfiles/doc/taglist.txt'
p365
sg10
Nsg26
Nsg27
g28
sg29
Nsbag1
(g19
g3
NtRp366
(dp367
g22
Nsg23
Nsg24
S'vimfiles/doc/tags'
p368
sg10
Nsg26
Nsg27
g28
sg29
Nsbag1
(g19
g3
NtRp369
(dp370
g22
Nsg23
Nsg24
S'vimfiles/doc/xml-plugin.txt'
p371
sg10
Nsg26
Nsg27
g28
sg29
Nsbag1
(g19
g3
NtRp372
(dp373
g22
Nsg23
Nsg24
S'vimfiles/ftdetect'
p374
sg10
Nsg26
Nsg27
g28
sg29
Nsbag1
(g19
g3
NtRp375
(dp376
g22
Nsg23
Nsg24
S'vimfiles/ftdetect/gtd.vim'
p377
sg10
Nsg26
Nsg27
g28
sg29
Nsbag1
(g19
g3
NtRp378
(dp379
g22
Nsg23
Nsg24
S'vimfiles/ftdetect/kid.vim'
p380
sg10
Nsg26
Nsg27
g28
sg29
Nsbag1
(g19
g3
NtRp381
(dp382
g22
Nsg23
Nsg24
S'vimfiles/ftdetect/lse.vim'
p383
sg10
Nsg26
Nsg27
g28
sg29
Nsbag1
(g19
g3
NtRp384
(dp385
g22
Nsg23
Nsg24
S'vimfiles/ftdetect/otl.vim'
p386
sg10
Nsg26
Nsg27
g28
sg29
Nsbag1
(g19
g3
NtRp387
(dp388
g22
Nsg23
Nsg24
S'vimfiles/ftplugin'
p389
sg10
Nsg26
Nsg27
g28
sg29
Nsbag1
(g19
g3
NtRp390
(dp391
g22
Nsg23
Nsg24
S'vimfiles/ftplugin/aspx.vim'
p392
sg10
Nsg26
Nsg27
g28
sg29
Nsbag1
(g19
g3
NtRp393
(dp394
g22
Nsg23
Nsg24
S'vimfiles/ftplugin/c.vim'
p395
sg10
Nsg26
Nsg27
g28
sg29
Nsbag1
(g19
g3
NtRp396
(dp397
g22
Nsg23
Nsg24
S'vimfiles/ftplugin/cs.vim'
p398
sg10
Nsg26
Nsg27
g28
sg29
Nsbag1
(g19
g3
NtRp399
(dp400
g22
Nsg23
Nsg24
S'vimfiles/ftplugin/dtd.vim'
p401
sg10
Nsg26
Nsg27
g28
sg29
Nsbag1
(g19
g3
NtRp402
(dp403
g22
Nsg23
Nsg24
S'vimfiles/ftplugin/erlang_local.vim'
p404
sg10
Nsg26
Nsg27
g28
sg29
Nsbag1
(g19
g3
NtRp405
(dp406
g22
Nsg23
Nsg24
S'vimfiles/ftplugin/gtd.vim'
p407
sg10
Nsg26
Nsg27
g28
sg29
Nsbag1
(g19
g3
NtRp408
(dp409
g22
Nsg23
Nsg24
S'vimfiles/ftplugin/html.vim'
p410
sg10
Nsg26
Nsg27
g28
sg29
Nsbag1
(g19
g3
NtRp411
(dp412
g22
Nsg23
Nsg24
S'vimfiles/ftplugin/html_local.vim'
p413
sg10
Nsg26
Nsg27
g28
sg29
Nsbag1
(g19
g3
NtRp414
(dp415
g22
Nsg23
Nsg24
S'vimfiles/ftplugin/htmlcheetah_local.vim'
p416
sg10
Nsg26
Nsg27
g28
sg29
Nsbag1
(g19
g3
NtRp417
(dp418
g22
Nsg23
Nsg24
S'vimfiles/ftplugin/java.vim'
p419
sg10
Nsg26
Nsg27
g28
sg29
Nsbag1
(g19
g3
NtRp420
(dp421
g22
Nsg23
Nsg24
S'vimfiles/ftplugin/jess_local.vim'
p422
sg10
Nsg26
Nsg27
g28
sg29
Nsbag1
(g19
g3
NtRp423
(dp424
g22
Nsg23
Nsg24
S'vimfiles/ftplugin/kid.vim'
p425
sg10
Nsg26
Nsg27
g28
sg29
Nsbag1
(g19
g3
NtRp426
(dp427
g22
Nsg23
Nsg24
S'vimfiles/ftplugin/lisp_local.vim'
p428
sg10
Nsg26
Nsg27
g28
sg29
Nsbag1
(g19
g3
NtRp429
(dp430
g22
Nsg23
Nsg24
S'vimfiles/ftplugin/lse_local.vim'
p431
sg10
Nsg26
Nsg27
g28
sg29
Nsbag1
(g19
g3
NtRp432
(dp433
g22
Nsg23
Nsg24
S'vimfiles/ftplugin/otl.vim'
p434
sg10
Nsg26
Nsg27
g28
sg29
Nsbag1
(g19
g3
NtRp435
(dp436
g22
Nsg23
Nsg24
S'vimfiles/ftplugin/perl_local.vim'
p437
sg10
Nsg26
Nsg27
g28
sg29
Nsbag1
(g19
g3
NtRp438
(dp439
g22
Nsg23
Nsg24
S'vimfiles/ftplugin/plaintex_local.vim'
p440
sg10
Nsg26
Nsg27
g28
sg29
Nsbag1
(g19
g3
NtRp441
(dp442
g22
Nsg23
Nsg24
S'vimfiles/ftplugin/profile_builder.vim'
p443
sg10
Nsg26
Nsg27
g28
sg29
Nsbag1
(g19
g3
NtRp444
(dp445
g22
Nsg23
Nsg24
S'vimfiles/ftplugin/python.vim'
p446
sg10
Nsg26
Nsg27
g28
sg29
Nsbag1
(g19
g3
NtRp447
(dp448
g22
Nsg23
Nsg24
S'vimfiles/ftplugin/python_local.vim'
p449
sg10
Nsg26
Nsg27
g28
sg29
Nsbag1
(g19
g3
NtRp450
(dp451
g22
Nsg23
Nsg24
S'vimfiles/ftplugin/rest_local.vim'
p452
sg10
Nsg26
Nsg27
g28
sg29
Nsbag1
(g19
g3
NtRp453
(dp454
g22
Nsg23
Nsg24
S'vimfiles/ftplugin/rst_local.vim'
p455
sg10
Nsg26
Nsg27
g28
sg29
Nsbag1
(g19
g3
NtRp456
(dp457
g22
Nsg23
Nsg24
S'vimfiles/ftplugin/ruby.vim'
p458
sg10
Nsg26
Nsg27
g28
sg29
Nsbag1
(g19
g3
NtRp459
(dp460
g22
Nsg23
Nsg24
S'vimfiles/ftplugin/scheme.vim'
p461
sg10
Nsg26
Nsg27
g28
sg29
Nsbag1
(g19
g3
NtRp462
(dp463
g22
Nsg23
Nsg24
S'vimfiles/ftplugin/tex_local.vim'
p464
sg10
Nsg26
Nsg27
g28
sg29
Nsbag1
(g19
g3
NtRp465
(dp466
g22
Nsg23
Nsg24
S'vimfiles/ftplugin/xml.vim'
p467
sg10
Nsg26
Nsg27
g28
sg29
Nsbag1
(g19
g3
NtRp468
(dp469
g22
Nsg23
Nsg24
S'vimfiles/ftplugin/xml_local.vim'
p470
sg10
Nsg26
Nsg27
g28
sg29
Nsbag1
(g19
g3
NtRp471
(dp472
g22
Nsg23
Nsg24
S'vimfiles/ftplugin/xslt_local.vim'
p473
sg10
Nsg26
Nsg27
g28
sg29
Nsbag1
(g19
g3
NtRp474
(dp475
g22
Nsg23
Nsg24
S'vimfiles/ftplugin/yaml_local.vim'
p476
sg10
Nsg26
Nsg27
g28
sg29
Nsbag1
(g19
g3
NtRp477
(dp478
g22
Nsg23
Nsg24
S'vimfiles/indent'
p479
sg10
Nsg26
Nsg27
g28
sg29
Nsbag1
(g19
g3
NtRp480
(dp481
g22
Nsg23
Nsg24
S'vimfiles/keymap'
p482
sg10
Nsg26
Nsg27
g28
sg29
Nsbag1
(g19
g3
NtRp483
(dp484
g22
Nsg23
Nsg24
S'vimfiles/plugin'
p485
sg10
Nsg26
Nsg27
g28
sg29
Nsbag1
(g19
g3
NtRp486
(dp487
g22
Nsg23
Nsg24
S'vimfiles/plugin/EasyHtml.vim'
p488
sg10
Nsg26
Nsg27
g28
sg29
Nsbag1
(g19
g3
NtRp489
(dp490
g22
Nsg23
Nsg24
S'vimfiles/plugin/LargeFile.vim'
p491
sg10
Nsg26
Nsg27
g28
sg29
Nsbag1
(g19
g3
NtRp492
(dp493
g22
Nsg23
Nsg24
S'vimfiles/plugin/NERD_tree.vim'
p494
sg10
Nsg26
Nsg27
g28
sg29
Nsbag1
(g19
g3
NtRp495
(dp496
g22
Nsg23
Nsg24
S'vimfiles/plugin/bike.vim'
p497
sg10
Nsg26
Nsg27
g28
sg29
Nsbag1
(g19
g3
NtRp498
(dp499
g22
Nsg23
Nsg24
S'vimfiles/plugin/bufexplorer.vim'
p500
sg10
Nsg26
Nsg27
g28
sg29
Nsbag1
(g19
g3
NtRp501
(dp502
g22
Nsg23
Nsg24
S'vimfiles/plugin/calendar.vim'
p503
sg10
Nsg26
Nsg27
g28
sg29
Nsbag1
(g19
g3
NtRp504
(dp505
g22
Nsg23
Nsg24
S'vimfiles/plugin/crefvim.vim'
p506
sg10
Nsg26
Nsg27
g28
sg29
Nsbag1
(g19
g3
NtRp507
(dp508
g22
Nsg23
Nsg24
S'vimfiles/plugin/darcs.vim'
p509
sg10
Nsg26
Nsg27
g28
sg29
Nsbag1
(g19
g3
NtRp510
(dp511
g22
Nsg23
Nsg24
S'vimfiles/plugin/dbext.vim'
p512
sg10
Nsg26
Nsg27
g28
sg29
Nsbag1
(g19
g3
NtRp513
(dp514
g22
Nsg23
Nsg24
S'vimfiles/plugin/genutils.vim'
p515
sg10
Nsg26
Nsg27
g28
sg29
Nsbag1
(g19
g3
NtRp516
(dp517
g22
Nsg23
Nsg24
S'vimfiles/plugin/matchit.vim'
p518
sg10
Nsg26
Nsg27
g28
sg29
Nsbag1
(g19
g3
NtRp519
(dp520
g22
Nsg23
Nsg24
S'vimfiles/plugin/multvals.vim'
p521
sg10
Nsg26
Nsg27
g28
sg29
Nsbag1
(g19
g3
NtRp522
(dp523
g22
Nsg23
Nsg24
S'vimfiles/plugin/project.vim'
p524
sg10
Nsg26
Nsg27
g28
sg29
Nsbag1
(g19
g3
NtRp525
(dp526
g22
Nsg23
Nsg24
S'vimfiles/plugin/pydoc.vim'
p527
sg10
Nsg26
Nsg27
g28
sg29
Nsbag1
(g19
g3
NtRp528
(dp529
g22
Nsg23
Nsg24
S'vimfiles/plugin/svncommand.vim'
p530
sg10
Nsg26
Nsg27
g28
sg29
Nsbag1
(g19
g3
NtRp531
(dp532
g22
Nsg23
Nsg24
S'vimfiles/plugin/taglist.vim'
p533
sg10
Nsg26
Nsg27
g28
sg29
Nsbag1
(g19
g3
NtRp534
(dp535
g22
Nsg23
Nsg24
S'vimfiles/scripts.vim'
p536
sg10
Nsg26
Nsg27
g28
sg29
Nsbag1
(g19
g3
NtRp537
(dp538
g22
Nsg23
Nsg24
S'vimfiles/spell'
p539
sg10
Nsg26
Nsg27
g28
sg29
Nsbag1
(g19
g3
NtRp540
(dp541
g22
Nsg23
Nsg24
S'vimfiles/spell/en.ascii.spl'
p542
sg10
Nsg26
Nsg27
g28
sg29
Nsbag1
(g19
g3
NtRp543
(dp544
g22
Nsg23
Nsg24
S'vimfiles/spell/en.latin1.spl'
p545
sg10
Nsg26
Nsg27
g28
sg29
Nsbag1
(g19
g3
NtRp546
(dp547
g22
Nsg23
Nsg24
S'vimfiles/spell/en.utf-8.spl'
p548
sg10
Nsg26
Nsg27
g28
sg29
Nsbag1
(g19
g3
NtRp549
(dp550
g22
Nsg23
Nsg24
S'vimfiles/syntax'
p551
sg10
Nsg26
Nsg27
g28
sg29
Nsbag1
(g19
g3
NtRp552
(dp553
g22
Nsg23
Nsg24
S'vimfiles/syntax/CVSAnnotate.vim'
p554
sg10
Nsg26
Nsg27
g28
sg29
Nsbag1
(g19
g3
NtRp555
(dp556
g22
Nsg23
Nsg24
S'vimfiles/syntax/aspnet.vim'
p557
sg10
Nsg26
Nsg27
g28
sg29
Nsbag1
(g19
g3
NtRp558
(dp559
g22
Nsg23
Nsg24
S'vimfiles/syntax/bzr.vim'
p560
sg10
Nsg26
Nsg27
g28
sg29
Nsbag1
(g19
g3
NtRp561
(dp562
g22
Nsg23
Nsg24
S'vimfiles/syntax/django.vim'
p563
sg10
Nsg26
Nsg27
g28
sg29
Nsbag1
(g19
g3
NtRp564
(dp565
g22
Nsg23
Nsg24
S'vimfiles/syntax/gtd.vim'
p566
sg10
Nsg26
Nsg27
g28
sg29
Nsbag1
(g19
g3
NtRp567
(dp568
g22
Nsg23
Nsg24
S'vimfiles/syntax/htmldjango.vim'
p569
sg10
Nsg26
Nsg27
g28
sg29
Nsbag1
(g19
g3
NtRp570
(dp571
g22
Nsg23
Nsg24
S'vimfiles/syntax/kid.vim'
p572
sg10
Nsg26
Nsg27
g28
sg29
Nsbag1
(g19
g3
NtRp573
(dp574
g22
Nsg23
Nsg24
S'vimfiles/syntax/lse.vim'
p575
sg10
Nsg26
Nsg27
g28
sg29
Nsbag1
(g19
g3
NtRp576
(dp577
g22
Nsg23
Nsg24
S'vimfiles/syntax/moin.vim'
p578
sg10
Nsg26
Nsg27
g28
sg29
Nsbag1
(g19
g3
NtRp579
(dp580
g22
Nsg23
Nsg24
S'vimfiles/syntax/otl.vim'
p581
sg10
Nsg26
Nsg27
g28
sg29
Nsbag1
(g19
g3
NtRp582
(dp583
g22
Nsg23
Nsg24
S'vimfiles/syntax/profile_builder.vim'
p584
sg10
Nsg26
Nsg27
g28
sg29
Nsbag1
(g19
g3
NtRp585
(dp586
g22
Nsg23
Nsg24
S'vimfiles/syntax/ps1.vim'
p587
sg10
Nsg26
Nsg27
g28
sg29
Nsbag1
(g19
g3
NtRp588
(dp589
g22
Nsg23
Nsg24
S'vimfiles/syntax/rest.vim'
p590
sg10
Nsg26
Nsg27
g28
sg29
Nsbag1
(g19
g3
NtRp591
(dp592
g22
Nsg23
Nsg24
S'vimfiles/syntax/yaml.vim'
p593
sg10
Nsg26
Nsg27
g28
sg29
NsbasS'revision'
p594
Verochest@gmail.com-20070209002921-f0b4d869bc3559e8
p595
sb.ccopy_reg
_reconstructor
p1
(cvcpx.changes
Changeset
p2
c__builtin__
object
p3
NtRp4
(dp5
S'log'
p6
S'removed superfluous tmp and cgi-bin directories'
p7
sS'author'
p8
S'Eric Rochester <erochest@gmail.com>'
p9
sS'unidiff'
p10
NsS'tags'
p11
NsS'_Changeset__date'
p12
cdatetime
datetime
p13
(S'\x07\xd7\x02\t\x0f\x086\x04\x9f\x98'
cvcpx.tzinfo
FixedOffset
p14
(I-300
tRp15
tRp16
sS'entries'
p17
(lp18
g1
(cvcpx.changes
ChangesetEntry
p19
g3
NtRp20
(dp21
S'status'
p22
NsS'old_revision'
p23
NsS'name'
p24
S'cgi-bin'
p25
sg10
NsS'new_revision'
p26
NsS'action_kind'
p27
S'DEL'
p28
sS'old_name'
p29
Nsbag1
(g19
g3
NtRp30
(dp31
g22
Nsg23
Nsg24
S'tmp'
p32
sg10
Nsg26
Nsg27
g28
sg29
NsbasS'revision'
p33
Verochest@gmail.com-20070209200854-gkas7ngmd0k8adqc
p34
sb.ccopy_reg
_reconstructor
p1
(cvcpx.changes
Changeset
p2
c__builtin__
object
p3
NtRp4
(dp5
S'log'
p6
S'vimrc added flex compiler autodetection'
p7
sS'author'
p8
S'Eric Rochester <erochest@gmail.com>'
p9
sS'unidiff'
p10
NsS'tags'
p11
NsS'_Changeset__date'
p12
cdatetime
datetime
p13
(S'\x07\xd7\x02\t\x0f9\x1a\x01!\x10'
cvcpx.tzinfo
FixedOffset
p14
(I-300
tRp15
tRp16
sS'entries'
p17
(lp18
g1
(cvcpx.changes
ChangesetEntry
p19
g3
NtRp20
(dp21
S'status'
p22
NsS'old_revision'
p23
NsS'name'
p24
V_vimrc
p25
sg10
NsS'new_revision'
p26
NsS'action_kind'
p27
S'UPD'
p28
sS'old_name'
p29
NsbasS'revision'
p30
Verochest@gmail.com-20070209205726-8ekh9lpq7r2aragf
p31
sb.ccopy_reg
_reconstructor
p1
(cvcpx.changes
Changeset
p2
c__builtin__
object
p3
NtRp4
(dp5
S'log'
p6
S'vimrc added actionscript syntax file'
p7
sS'author'
p8
S'Eric Rochester <erochest@gmail.com>'
p9
sS'unidiff'
p10
NsS'tags'
p11
NsS'_Changeset__date'
p12
cdatetime
datetime
p13
(S'\x07\xd7\x02\t\x10\x058\x07GH'
cvcpx.tzinfo
FixedOffset
p14
(I-300
tRp15
tRp16
sS'entries'
p17
(lp18
g1
(cvcpx.changes
ChangesetEntry
p19
g3
NtRp20
(dp21
S'status'
p22
NsS'old_revision'
p23
NsS'name'
p24
V_vimrc
p25
sg10
NsS'new_revision'
p26
NsS'action_kind'
p27
S'UPD'
p28
sS'old_name'
p29
NsbasS'revision'
p30
Verochest@gmail.com-20070209210556-qt36tyx4x79kplr4
p31
sb.ccopy_reg
_reconstructor
p1
(cvcpx.changes
Changeset
p2
c__builtin__
object
p3
NtRp4
(dp5
S'log'
p6
S'added format-xml cmdlet'
p7
sS'author'
p8
S'Eric Rochester <erochest@gmail.com>'
p9
sS'unidiff'
p10
NsS'tags'
p11
NsS'_Changeset__date'
p12
cdatetime
datetime
p13
(S'\x07\xd7\x02\x13\x0e\x115\x05\xb4\xf0'
cvcpx.tzinfo
FixedOffset
p14
(I-300
tRp15
tRp16
sS'entries'
p17
(lp18
g1
(cvcpx.changes
ChangesetEntry
p19
g3
NtRp20
(dp21
S'status'
p22
NsS'old_revision'
p23
NsS'name'
p24
V.fetchmailrc
p25
sg10
NsS'new_revision'
p26
NsS'action_kind'
p27
S'ADD'
p28
sS'old_name'
p29
Nsbag1
(g19
g3
NtRp30
(dp31
g22
Nsg23
Nsg24
VWindowsPowerShell/FormatXml.ps1
p32
sg10
Nsg26
Nsg27
g28
sg29
NsbasS'revision'
p33
Verochest@gmail.com-20070219191753-dwlo0wjbllx9bua7
p34
sb.ccopy_reg
_reconstructor
p1
(cvcpx.changes
Changeset
p2
c__builtin__
object
p3
NtRp4
(dp5
S'log'
p6
S'WindowsPowerShell added profile from PSCX'
p7
sS'author'
p8
S'Eric Rochester <erochest@gmail.com>'
p9
sS'unidiff'
p10
NsS'tags'
p11
NsS'_Changeset__date'
p12
cdatetime
datetime
p13
(S'\x07\xd7\x02\x19\x0f\x1b0\r\x94\x90'
cvcpx.tzinfo
FixedOffset
p14
(I-300
tRp15
tRp16
sS'entries'
p17
(lp18
g1
(cvcpx.changes
ChangesetEntry
p19
g3
NtRp20
(dp21
S'status'
p22
NsS'old_revision'
p23
NsS'name'
p24
VWindowsPowerShell/Profile.ps1
p25
sg10
NsS'new_revision'
p26
NsS'action_kind'
p27
S'ADD'
p28
sS'old_name'
p29
NsbasS'revision'
p30
Verochest@gmail.com-20070225202748-inhjtki9xd8ymost
p31
sb.ccopy_reg
_reconstructor
p1
(cvcpx.changes
Changeset
p2
c__builtin__
object
p3
NtRp4
(dp5
S'log'
p6
S'changed prefered editor for powershell'
p7
sS'author'
p8
S'Eric Rochester <erochest@gmail.com>'
p9
sS'unidiff'
p10
NsS'tags'
p11
NsS'_Changeset__date'
p12
cdatetime
datetime
p13
(S'\x07\xd7\x02\x1a\x0b2-\x02a`'
cvcpx.tzinfo
FixedOffset
p14
(I-300
tRp15
tRp16
sS'entries'
p17
(lp18
g1
(cvcpx.changes
ChangesetEntry
p19
g3
NtRp20
(dp21
S'status'
p22
NsS'old_revision'
p23
NsS'name'
p24
VWindowsPowerShell/Profile.ps1
p25
sg10
NsS'new_revision'
p26
NsS'action_kind'
p27
S'UPD'
p28
sS'old_name'
p29
NsbasS'revision'
p30
Verochest@gmail.com-20070226165045-qcfwl36j4apqtrfp
p31
sb.ccopy_reg
_reconstructor
p1
(cvcpx.changes
Changeset
p2
c__builtin__
object
p3
NtRp4
(dp5
S'log'
p6
S'added bookmarks'
p7
sS'author'
p8
S'Eric Rochester <erochest@gmail.com>'
p9
sS'unidiff'
p10
NsS'tags'
p11
NsS'_Changeset__date'
p12
cdatetime
datetime
p13
(S'\x07\xd7\x02\x1c\r\x05\x0b\x08T\xd0'
cvcpx.tzinfo
FixedOffset
p14
(I-300
tRp15
tRp16
sS'entries'
p17
(lp18
g1
(cvcpx.changes
ChangesetEntry
p19
g3
NtRp20
(dp21
S'status'
p22
NsS'old_revision'
p23
NsS'name'
p24
Vbookmarks.html
p25
sg10
NsS'new_revision'
p26
NsS'action_kind'
p27
S'ADD'
p28
sS'old_name'
p29
Nsbag1
(g19
g3
NtRp30
(dp31
g22
Nsg23
Nsg24
Vfirefox.py
p32
sg10
Nsg26
Nsg27
g28
sg29
Nsbag1
(g19
g3
NtRp33
(dp34
g22
Nsg23
Nsg24
Vpull_bookmarks.py
p35
sg10
Nsg26
Nsg27
g28
sg29
Nsbag1
(g19
g3
NtRp36
(dp37
g22
Nsg23
Nsg24
Vpush_bookmarks.py
p38
sg10
Nsg26
Nsg27
g28
sg29
Nsbag1
(g19
g3
NtRp39
(dp40
g22
Nsg23
Nsg24
Vstartup.py
p41
sg10
Nsg26
Nsg27
g28
sg29
NsbasS'revision'
p42
Verochest@gmail.com-20070228180511-gmku61fws6ro7rhk
p43
sb.ccopy_reg
_reconstructor
p1
(cvcpx.changes
Changeset
p2
c__builtin__
object
p3
NtRp4
(dp5
S'log'
p6
S'bookmarks 28 feb 2007'
p7
sS'author'
p8
S'Eric Rochester <erochest@gmail.com>'
p9
sS'unidiff'
p10
NsS'tags'
p11
NsS'_Changeset__date'
p12
cdatetime
datetime
p13
(S'\x07\xd7\x02\x1c\x11\x13\x01\tf@'
cvcpx.tzinfo
FixedOffset
p14
(I-300
tRp15
tRp16
sS'entries'
p17
(lp18
g1
(cvcpx.changes
ChangesetEntry
p19
g3
NtRp20
(dp21
S'status'
p22
NsS'old_revision'
p23
NsS'name'
p24
Vbookmarks.html
p25
sg10
NsS'new_revision'
p26
NsS'action_kind'
p27
S'UPD'
p28
sS'old_name'
p29
NsbasS'revision'
p30
Verochest@gmail.com-20070228221901-k41783ldjs19wze8
p31
sb.ccopy_reg
_reconstructor
p1
(cvcpx.changes
Changeset
p2
c__builtin__
object
p3
NtRp4
(dp5
S'log'
p6
S'bookmarks 28 feb 2007'
p7
sS'author'
p8
S'erochester <erochester@rochester-lt>'
p9
sS'unidiff'
p10
NsS'tags'
p11
NsS'_Changeset__date'
p12
cdatetime
datetime
p13
(S'\x07\xd7\x02\x1c\x16\x0f#\x04\xd6H'
cvcpx.tzinfo
FixedOffset
p14
(I-300
tRp15
tRp16
sS'entries'
p17
(lp18
g1
(cvcpx.changes
ChangesetEntry
p19
g3
NtRp20
(dp21
S'status'
p22
NsS'old_revision'
p23
NsS'name'
p24
Vbookmarks.html
p25
sg10
NsS'new_revision'
p26
NsS'action_kind'
p27
S'UPD'
p28
sS'old_name'
p29
NsbasS'revision'
p30
Verochester@rochester-lt-20070301031535-kgndv92c563egdaf
p31
sb.ccopy_reg
_reconstructor
p1
(cvcpx.changes
Changeset
p2
c__builtin__
object
p3
NtRp4
(dp5
S'log'
p6
S'bookmarks 1 mar 2007'
p7
sS'author'
p8
S'Eric Rochester <erochest@gmail.com>'
p9
sS'unidiff'
p10
NsS'tags'
p11
NsS'_Changeset__date'
p12
cdatetime
datetime
p13
(S'\x07\xd7\x03\x01\x13\x15\x0b\x05?\xc0'
cvcpx.tzinfo
FixedOffset
p14
(I-300
tRp15
tRp16
sS'entries'
p17
(lp18
g1
(cvcpx.changes
ChangesetEntry
p19
g3
NtRp20
(dp21
S'status'
p22
NsS'old_revision'
p23
NsS'name'
p24
Vbookmarks.html
p25
sg10
NsS'new_revision'
p26
NsS'action_kind'
p27
S'UPD'
p28
sS'old_name'
p29
NsbasS'revision'
p30
Verochest@gmail.com-20070302002111-6ssrlo69ubds8g0t
p31
sb.ccopy_reg
_reconstructor
p1
(cvcpx.changes
Changeset
p2
c__builtin__
object
p3
NtRp4
(dp5
S'log'
p6
S'bookmarks 1 mar 2007'
p7
sS'author'
p8
S'erochester <erochester@rochester-lt>'
p9
sS'unidiff'
p10
NsS'tags'
p11
NsS'_Changeset__date'
p12
cdatetime
datetime
p13
(S'\x07\xd7\x03\x01\x158\x1d\x00\x88\xb8'
cvcpx.tzinfo
FixedOffset
p14
(I-300
tRp15
tRp16
sS'entries'
p17
(lp18
g1
(cvcpx.changes
ChangesetEntry
p19
g3
NtRp20
(dp21
S'status'
p22
NsS'old_revision'
p23
NsS'name'
p24
Vbookmarks.html
p25
sg10
NsS'new_revision'
p26
NsS'action_kind'
p27
S'UPD'
p28
sS'old_name'
p29
NsbasS'revision'
p30
Verochester@rochester-lt-20070302025629-gzvin7kjebso6spx
p31
sb.ccopy_reg
_reconstructor
p1
(cvcpx.changes
Changeset
p2
c__builtin__
object
p3
NtRp4
(dp5
S'log'
p6
S'vimrc added C-m shortcut'
p7
sS'author'
p8
S'Eric Rochester <erochest@gmail.com>'
p9
sS'unidiff'
p10
NsS'tags'
p11
NsS'_Changeset__date'
p12
cdatetime
datetime
p13
(S'\x07\xd7\x03\x02\x11 !\x06pp'
cvcpx.tzinfo
FixedOffset
p14
(I-300
tRp15
tRp16
sS'entries'
p17
(lp18
g1
(cvcpx.changes
ChangesetEntry
p19
g3
NtRp20
(dp21
S'status'
p22
NsS'old_revision'
p23
NsS'name'
p24
V_vimrc
p25
sg10
NsS'new_revision'
p26
NsS'action_kind'
p27
S'UPD'
p28
sS'old_name'
p29
NsbasS'revision'
p30
Verochest@gmail.com-20070302223233-ptic9b1aypls9plp
p31
sb.ccopy_reg
_reconstructor
p1
(cvcpx.changes
Changeset
p2
c__builtin__
object
p3
NtRp4
(dp5
S'log'
p6
S'bookmarks 2 mar 2007'
p7
sS'author'
p8
S'Eric Rochester <erochest@gmail.com>'
p9
sS'unidiff'
p10
NsS'tags'
p11
NsS'_Changeset__date'
p12
cdatetime
datetime
p13
(S'\x07\xd7\x03\x02\x11 *\x00>\x80'
cvcpx.tzinfo
FixedOffset
p14
(I-300
tRp15
tRp16
sS'entries'
p17
(lp18
g1
(cvcpx.changes
ChangesetEntry
p19
g3
NtRp20
(dp21
S'status'
p22
NsS'old_revision'
p23
NsS'name'
p24
Vbookmarks.html
p25
sg10
NsS'new_revision'
p26
NsS'action_kind'
p27
S'UPD'
p28
sS'old_name'
p29
NsbasS'revision'
p30
Verochest@gmail.com-20070302223242-3k5ry84j5dwr3dt1
p31
sb.ccopy_reg
_reconstructor
p1
(cvcpx.changes
Changeset
p2
c__builtin__
object
p3
NtRp4
(dp5
S'log'
p6
S'bookmarks 4 mar 2007'
p7
sS'author'
p8
S'erochester <erochester@rochester-lt>'
p9
sS'unidiff'
p10
NsS'tags'
p11
NsS'_Changeset__date'
p12
cdatetime
datetime
p13
(S'\x07\xd7\x03\x04\x15\x17%\x06\x80\x10'
cvcpx.tzinfo
FixedOffset
p14
(I-300
tRp15
tRp16
sS'entries'
p17
(lp18
g1
(cvcpx.changes
ChangesetEntry
p19
g3
NtRp20
(dp21
S'status'
p22
NsS'old_revision'
p23
NsS'name'
p24
Vbookmarks.html
p25
sg10
NsS'new_revision'
p26
NsS'action_kind'
p27
S'UPD'
p28
sS'old_name'
p29
NsbasS'revision'
p30
Verochester@rochester-lt-20070305022337-eshz6gpyekumgp4m
p31
sb.ccopy_reg
_reconstructor
p1
(cvcpx.changes
Changeset
p2
c__builtin__
object
p3
NtRp4
(dp5
S'log'
p6
S'bookmarks 5 mar 2007'
p7
sS'author'
p8
S'Eric Rochester <erochest@gmail.com>'
p9
sS'unidiff'
p10
NsS'tags'
p11
NsS'_Changeset__date'
p12
cdatetime
datetime
p13
(S'\x07\xd7\x03\x05\x11\x01$\x04*h'
cvcpx.tzinfo
FixedOffset
p14
(I-300
tRp15
tRp16
sS'entries'
p17
(lp18
g1
(cvcpx.changes
ChangesetEntry
p19
g3
NtRp20
(dp21
S'status'
p22
NsS'old_revision'
p23
NsS'name'
p24
Vbookmarks.html
p25
sg10
NsS'new_revision'
p26
NsS'action_kind'
p27
S'UPD'
p28
sS'old_name'
p29
NsbasS'revision'
p30
Verochest@gmail.com-20070305220136-ftlmlswqhyvosn69
p31
sb.ccopy_reg
_reconstructor
p1
(cvcpx.changes
Changeset
p2
c__builtin__
object
p3
NtRp4
(dp5
S'log'
p6
S'bookmarks 5 mar 2007'
p7
sS'author'
p8
S'erochester <erochester@rochester-lt>'
p9
sS'unidiff'
p10
NsS'tags'
p11
NsS'_Changeset__date'
p12
cdatetime
datetime
p13
(S'\x07\xd7\x03\x05\x15\x0b\x02\r\x0b\xd8'
cvcpx.tzinfo
FixedOffset
p14
(I-300
tRp15
tRp16
sS'entries'
p17
(lp18
g1
(cvcpx.changes
ChangesetEntry
p19
g3
NtRp20
(dp21
S'status'
p22
NsS'old_revision'
p23
NsS'name'
p24
Vbookmarks.html
p25
sg10
NsS'new_revision'
p26
NsS'action_kind'
p27
S'UPD'
p28
sS'old_name'
p29
NsbasS'revision'
p30
Verochester@rochester-lt-20070306021102-dgtxbcjjxunvglap
p31
sb.ccopy_reg
_reconstructor
p1
(cvcpx.changes
Changeset
p2
c__builtin__
object
p3
NtRp4
(dp5
S'log'
p6
S'bookmarks 6 mar 2007'
p7
sS'author'
p8
S'Eric Rochester <erochest@gmail.com>'
p9
sS'unidiff'
p10
NsS'tags'
p11
NsS'_Changeset__date'
p12
cdatetime
datetime
p13
(S'\x07\xd7\x03\x06\x11$*\x00\x17p'
cvcpx.tzinfo
FixedOffset
p14
(I-300
tRp15
tRp16
sS'entries'
p17
(lp18
g1
(cvcpx.changes
ChangesetEntry
p19
g3
NtRp20
(dp21
S'status'
p22
NsS'old_revision'
p23
NsS'name'
p24
Vbookmarks.html
p25
sg10
NsS'new_revision'
p26
NsS'action_kind'
p27
S'UPD'
p28
sS'old_name'
p29
NsbasS'revision'
p30
Verochest@gmail.com-20070306223642-haw81winltc67nsq
p31
sb.ccopy_reg
_reconstructor
p1
(cvcpx.changes
Changeset
p2
c__builtin__
object
p3
NtRp4
(dp5
S'log'
p6
S'added stikkit config file'
p7
sS'author'
p8
S'erochester <erochester@rochester-lt>'
p9
sS'unidiff'
p10
NsS'tags'
p11
NsS'_Changeset__date'
p12
cdatetime
datetime
p13
(S'\x07\xd7\x03\x06\x15\x14:\x0c5\x00'
cvcpx.tzinfo
FixedOffset
p14
(I-300
tRp15
tRp16
sS'entries'
p17
(lp18
g1
(cvcpx.changes
ChangesetEntry
p19
g3
NtRp20
(dp21
S'status'
p22
NsS'old_revision'
p23
NsS'name'
p24
V.stikkit
p25
sg10
NsS'new_revision'
p26
NsS'action_kind'
p27
S'ADD'
p28
sS'old_name'
p29
NsbasS'revision'
p30
Verochester@rochester-lt-20070307022058-5d9efir9qnmgse19
p31
sb.ccopy_reg
_reconstructor
p1
(cvcpx.changes
Changeset
p2
c__builtin__
object
p3
NtRp4
(dp5
S'log'
p6
S'bookmarks 7 mar 2007'
p7
sS'author'
p8
S'Eric Rochester <erochest@gmail.com>'
p9
sS'unidiff'
p10
NsS'tags'
p11
NsS'_Changeset__date'
p12
cdatetime
datetime
p13
(S'\x07\xd7\x03\x07\x110\x0e\x03\x9d\xc8'
cvcpx.tzinfo
FixedOffset
p14
(I-300
tRp15
tRp16
sS'entries'
p17
(lp18
g1
(cvcpx.changes
ChangesetEntry
p19
g3
NtRp20
(dp21
S'status'
p22
NsS'old_revision'
p23
NsS'name'
p24
Vbookmarks.html
p25
sg10
NsS'new_revision'
p26
NsS'action_kind'
p27
S'UPD'
p28
sS'old_name'
p29
NsbasS'revision'
p30
Verochest@gmail.com-20070307224814-oe2z857oviw64t06
p31
sb.ccopy_reg
_reconstructor
p1
(cvcpx.changes
Changeset
p2
c__builtin__
object
p3
NtRp4
(dp5
S'log'
p6
S'bookmarks 7 mar 2007'
p7
sS'author'
p8
S'erochester <erochester@rochester-lt>'
p9
sS'unidiff'
p10
NsS'tags'
p11
NsS'_Changeset__date'
p12
cdatetime
datetime
p13
(S'\x07\xd7\x03\x08\x07\r\x0c\x03\xd4x'
cvcpx.tzinfo
FixedOffset
p14
(I-300
tRp15
tRp16
sS'entries'
p17
(lp18
g1
(cvcpx.changes
ChangesetEntry
p19
g3
NtRp20
(dp21
S'status'
p22
NsS'old_revision'
p23
NsS'name'
p24
Vbookmarks.html
p25
sg10
NsS'new_revision'
p26
NsS'action_kind'
p27
S'UPD'
p28
sS'old_name'
p29
NsbasS'revision'
p30
Verochester@rochester-lt-20070308121312-6x35tjxxwhvib96m
p31
sb.ccopy_reg
_reconstructor
p1
(cvcpx.changes
Changeset
p2
c__builtin__
object
p3
NtRp4
(dp5
S'log'
p6
S'bookmarks 8 mar 2007'
p7
sS'author'
p8
S'Eric Rochester <erochest@gmail.com>'
p9
sS'unidiff'
p10
NsS'tags'
p11
NsS'_Changeset__date'
p12
cdatetime
datetime
p13
(S'\x07\xd7\x03\x08\x11\x13\x10\x08\xd1\xd0'
cvcpx.tzinfo
FixedOffset
p14
(I-300
tRp15
tRp16
sS'entries'
p17
(lp18
g1
(cvcpx.changes
ChangesetEntry
p19
g3
NtRp20
(dp21
S'status'
p22
NsS'old_revision'
p23
NsS'name'
p24
Vbookmarks.html
p25
sg10
NsS'new_revision'
p26
NsS'action_kind'
p27
S'UPD'
p28
sS'old_name'
p29
NsbasS'revision'
p30
Verochest@gmail.com-20070308221916-wqts0w66drezq42n
p31
sb.ccopy_reg
_reconstructor
p1
(cvcpx.changes
Changeset
p2
c__builtin__
object
p3
NtRp4
(dp5
S'log'
p6
S'bookmarks 8 mar 2007'
p7
sS'author'
p8
S'Eric Rochester <erochest@gmail.com>'
p9
sS'unidiff'
p10
NsS'tags'
p11
NsS'_Changeset__date'
p12
cdatetime
datetime
p13
(S'\x07\xd7\x03\x08\x13.*\x0c\xdc\xf8'
cvcpx.tzinfo
FixedOffset
p14
(I-300
tRp15
tRp16
sS'entries'
p17
(lp18
g1
(cvcpx.changes
ChangesetEntry
p19
g3
NtRp20
(dp21
S'status'
p22
NsS'old_revision'
p23
NsS'name'
p24
Vbookmarks.html
p25
sg10
NsS'new_revision'
p26
NsS'action_kind'
p27
S'UPD'
p28
sS'old_name'
p29
NsbasS'revision'
p30
Verochest@gmail.com-20070309004642-7znypl54cvfan0r4
p31
sb.ccopy_reg
_reconstructor
p1
(cvcpx.changes
Changeset
p2
c__builtin__
object
p3
NtRp4
(dp5
S'log'
p6
S'bookmarks 8 mar 2007 final'
p7
sS'author'
p8
S'erochester <erochester@rochester-lt>'
p9
sS'unidiff'
p10
NsS'tags'
p11
NsS'_Changeset__date'
p12
cdatetime
datetime
p13
(S'\x07\xd7\x03\x08\x15(\x1a\rFp'
cvcpx.tzinfo
FixedOffset
p14
(I-300
tRp15
tRp16
sS'entries'
p17
(lp18
g1
(cvcpx.changes
ChangesetEntry
p19
g3
NtRp20
(dp21
S'status'
p22
NsS'old_revision'
p23
NsS'name'
p24
Vbookmarks.html
p25
sg10
NsS'new_revision'
p26
NsS'action_kind'
p27
S'UPD'
p28
sS'old_name'
p29
NsbasS'revision'
p30
Verochester@rochester-lt-20070309024026-znt6nnk1m03kvpb0
p31
sb.ccopy_reg
_reconstructor
p1
(cvcpx.changes
Changeset
p2
c__builtin__
object
p3
NtRp4
(dp5
S'log'
p6
S'bookmarks 9 mar 2007'
p7
sS'author'
p8
S'Eric Rochester <erochest@gmail.com>'
p9
sS'unidiff'
p10
NsS'tags'
p11
NsS'_Changeset__date'
p12
cdatetime
datetime
p13
(S'\x07\xd7\x03\t\x12\r\t\r\x94\x90'
cvcpx.tzinfo
FixedOffset
p14
(I-300
tRp15
tRp16
sS'entries'
p17
(lp18
g1
(cvcpx.changes
ChangesetEntry
p19
g3
NtRp20
(dp21
S'status'
p22
NsS'old_revision'
p23
NsS'name'
p24
Vbookmarks.html
p25
sg10
NsS'new_revision'
p26
NsS'action_kind'
p27
S'UPD'
p28
sS'old_name'
p29
NsbasS'revision'
p30
Verochest@gmail.com-20070309231309-uzag8304mzm0op1s
p31
sb.ccopy_reg
_reconstructor
p1
(cvcpx.changes
Changeset
p2
c__builtin__
object
p3
NtRp4
(dp5
S'log'
p6
S'bookmarks 9 mar 2007'
p7
sS'author'
p8
S'erochester <erochester@rochester-lt>'
p9
sS'unidiff'
p10
NsS'tags'
p11
NsS'_Changeset__date'
p12
cdatetime
datetime
p13
(S'\x07\xd7\x03\t\x16\x150\x06\x83\xf8'
cvcpx.tzinfo
FixedOffset
p14
(I-300
tRp15
tRp16
sS'entries'
p17
(lp18
g1
(cvcpx.changes
ChangesetEntry
p19
g3
NtRp20
(dp21
S'status'
p22
NsS'old_revision'
p23
NsS'name'
p24
Vbookmarks.html
p25
sg10
NsS'new_revision'
p26
NsS'action_kind'
p27
S'UPD'
p28
sS'old_name'
p29
NsbasS'revision'
p30
Verochester@rochester-lt-20070310032148-t6zc3up4ek0yh4of
p31
sb.ccopy_reg
_reconstructor
p1
(cvcpx.changes
Changeset
p2
c__builtin__
object
p3
NtRp4
(dp5
S'log'
p6
S'bookmarks 11 mar 2007'
p7
sS'author'
p8
S'erochester <erochester@rochester-lt>'
p9
sS'unidiff'
p10
NsS'tags'
p11
NsS'_Changeset__date'
p12
cdatetime
datetime
p13
(S'\x07\xd7\x03\x0b\x15+\x0e\x05f\xd0'
cvcpx.tzinfo
FixedOffset
p14
(I-240
tRp15
tRp16
sS'entries'
p17
(lp18
g1
(cvcpx.changes
ChangesetEntry
p19
g3
NtRp20
(dp21
S'status'
p22
NsS'old_revision'
p23
NsS'name'
p24
Vbookmarks.html
p25
sg10
NsS'new_revision'
p26
NsS'action_kind'
p27
S'UPD'
p28
sS'old_name'
p29
NsbasS'revision'
p30
Verochester@rochester-lt-20070312014314-2j6h7wf2jzkd4o3w
p31
sb.ccopy_reg
_reconstructor
p1
(cvcpx.changes
Changeset
p2
c__builtin__
object
p3
NtRp4
(dp5
S'log'
p6
S'bookmarks 12 mar 2007'
p7
sS'author'
p8
S'Eric Rochester <erochest@gmail.com>'
p9
sS'unidiff'
p10
NsS'tags'
p11
NsS'_Changeset__date'
p12
cdatetime
datetime
p13
(S'\x07\xd7\x03\x0c\x109;\x05SH'
cvcpx.tzinfo
FixedOffset
p14
(I-240
tRp15
tRp16
sS'entries'
p17
(lp18
g1
(cvcpx.changes
ChangesetEntry
p19
g3
NtRp20
(dp21
S'status'
p22
NsS'old_revision'
p23
NsS'name'
p24
Vbookmarks.html
p25
sg10
NsS'new_revision'
p26
NsS'action_kind'
p27
S'UPD'
p28
sS'old_name'
p29
NsbasS'revision'
p30
Verochest@gmail.com-20070312205759-399rpl9c23rpba42
p31
sb.ccopy_reg
_reconstructor
p1
(cvcpx.changes
Changeset
p2
c__builtin__
object
p3
NtRp4
(dp5
S'log'
p6
S'bookmarks 12 mar 2007'
p7
sS'author'
p8
S'erochester <erochester@rochester-lt>'
p9
sS'unidiff'
p10
NsS'tags'
p11
NsS'_Changeset__date'
p12
cdatetime
datetime
p13
(S'\x07\xd7\x03\r\x07\x11\x12\x00\x03\xe8'
cvcpx.tzinfo
FixedOffset
p14
(I-240
tRp15
tRp16
sS'entries'
p17
(lp18
g1
(cvcpx.changes
ChangesetEntry
p19
g3
NtRp20
(dp21
S'status'
p22
NsS'old_revision'
p23
NsS'name'
p24
Vbookmarks.html
p25
sg10
NsS'new_revision'
p26
NsS'action_kind'
p27
S'UPD'
p28
sS'old_name'
p29
NsbasS'revision'
p30
Verochester@rochester-lt-20070313111718-m2hxvnyjeicr54hm
p31
sb.ccopy_reg
_reconstructor
p1
(cvcpx.changes
Changeset
p2
c__builtin__
object
p3
NtRp4
(dp5
S'log'
p6
S'bookmarks 13 mar 2007'
p7
sS'author'
p8
S'Eric Rochester <erochest@gmail.com>'
p9
sS'unidiff'
p10
NsS'tags'
p11
NsS'_Changeset__date'
p12
cdatetime
datetime
p13
(S'\x07\xd7\x03\r\x11)\x10\n{\x98'
cvcpx.tzinfo
FixedOffset
p14
(I-240
tRp15
tRp16
sS'entries'
p17
(lp18
g1
(cvcpx.changes
ChangesetEntry
p19
g3
NtRp20
(dp21
S'status'
p22
NsS'old_revision'
p23
NsS'name'
p24
Vbookmarks.html
p25
sg10
NsS'new_revision'
p26
NsS'action_kind'
p27
S'UPD'
p28
sS'old_name'
p29
NsbasS'revision'
p30
Verochest@gmail.com-20070313214116-2dbdp426hkxqskp2
p31
sb.ccopy_reg
_reconstructor
p1
(cvcpx.changes
Changeset
p2
c__builtin__
object
p3
NtRp4
(dp5
S'log'
p6
S'bookmarks 13 mar 2007'
p7
sS'author'
p8
S'erochester <erochester@rochester-lt>'
p9
sS'unidiff'
p10
NsS'tags'
p11
NsS'_Changeset__date'
p12
cdatetime
datetime
p13
(S'\x07\xd7\x03\r\x16#1\t^p'
cvcpx.tzinfo
FixedOffset
p14
(I-240
tRp15
tRp16
sS'entries'
p17
(lp18
g1
(cvcpx.changes
ChangesetEntry
p19
g3
NtRp20
(dp21
S'status'
p22
NsS'old_revision'
p23
NsS'name'
p24
Vbookmarks.html
p25
sg10
NsS'new_revision'
p26
NsS'action_kind'
p27
S'UPD'
p28
sS'old_name'
p29
NsbasS'revision'
p30
Verochester@rochester-lt-20070314023549-nm6h41f50a96mgh9
p31
sb.ccopy_reg
_reconstructor
p1
(cvcpx.changes
Changeset
p2
c__builtin__
object
p3
NtRp4
(dp5
S'log'
p6
S'bookmarks 14 mar 2007'
p7
sS'author'
p8
S'Eric Rochester <erochest@gmail.com>'
p9
sS'unidiff'
p10
NsS'tags'
p11
NsS'_Changeset__date'
p12
cdatetime
datetime
p13
(S'\x07\xd7\x03\x0e\x12!&\x07^\xb8'
cvcpx.tzinfo
FixedOffset
p14
(I-240
tRp15
tRp16
sS'entries'
p17
(lp18
g1
(cvcpx.changes
ChangesetEntry
p19
g3
NtRp20
(dp21
S'status'
p22
NsS'old_revision'
p23
NsS'name'
p24
Vbookmarks.html
p25
sg10
NsS'new_revision'
p26
NsS'action_kind'
p27
S'UPD'
p28
sS'old_name'
p29
NsbasS'revision'
p30
Verochest@gmail.com-20070314223338-c3elbgki1hlhqovg
p31
sb.ccopy_reg
_reconstructor
p1
(cvcpx.changes
Changeset
p2
c__builtin__
object
p3
NtRp4
(dp5
S'log'
p6
S'bookmarks 14 mar 2007'
p7
sS'author'
p8
S'erochester <erochester@rochester-lt>'
p9
sS'unidiff'
p10
NsS'tags'
p11
NsS'_Changeset__date'
p12
cdatetime
datetime
p13
(S'\x07\xd7\x03\x0e\x16\r4\x0b\xe2\xf8'
cvcpx.tzinfo
FixedOffset
p14
(I-240
tRp15
tRp16
sS'entries'
p17
(lp18
g1
(cvcpx.changes
ChangesetEntry
p19
g3
NtRp20
(dp21
S'status'
p22
NsS'old_revision'
p23
NsS'name'
p24
Vbookmarks.html
p25
sg10
NsS'new_revision'
p26
NsS'action_kind'
p27
S'UPD'
p28
sS'old_name'
p29
NsbasS'revision'
p30
Verochester@rochester-lt-20070315021352-c06nc8ufowrn7kee
p31
sb.ccopy_reg
_reconstructor
p1
(cvcpx.changes
Changeset
p2
c__builtin__
object
p3
NtRp4
(dp5
S'log'
p6
S'bookmarks 15 mar 2007'
p7
sS'author'
p8
S'Eric Rochester <erochest@gmail.com>'
p9
sS'unidiff'
p10
NsS'tags'
p11
NsS'_Changeset__date'
p12
cdatetime
datetime
p13
(S'\x07\xd7\x03\x0f\x11\x0c\x0b\x06\xfd\x10'
cvcpx.tzinfo
FixedOffset
p14
(I-240
tRp15
tRp16
sS'entries'
p17
(lp18
g1
(cvcpx.changes
ChangesetEntry
p19
g3
NtRp20
(dp21
S'status'
p22
NsS'old_revision'
p23
NsS'name'
p24
Vbookmarks.html
p25
sg10
NsS'new_revision'
p26
NsS'action_kind'
p27
S'UPD'
p28
sS'old_name'
p29
NsbasS'revision'
p30
Verochest@gmail.com-20070315211211-nljgy6b5p1bef1q0
p31
sb.ccopy_reg
_reconstructor
p1
(cvcpx.changes
Changeset
p2
c__builtin__
object
p3
NtRp4
(dp5
S'log'
p6
S'bookmarks 15 mar 2007'
p7
sS'author'
p8
S'erochester <erochester@rochester-lt>'
p9
sS'unidiff'
p10
NsS'tags'
p11
NsS'_Changeset__date'
p12
cdatetime
datetime
p13
(S'\x07\xd7\x03\x0f\x16\x181\x08\x12h'
cvcpx.tzinfo
FixedOffset
p14
(I-240
tRp15
tRp16
sS'entries'
p17
(lp18
g1
(cvcpx.changes
ChangesetEntry
p19
g3
NtRp20
(dp21
S'status'
p22
NsS'old_revision'
p23
NsS'name'
p24
Vbookmarks.html
p25
sg10
NsS'new_revision'
p26
NsS'action_kind'
p27
S'UPD'
p28
sS'old_name'
p29
NsbasS'revision'
p30
Verochester@rochester-lt-20070316022449-1erfhj6w5kkhbq5y
p31
sb.ccopy_reg
_reconstructor
p1
(cvcpx.changes
Changeset
p2
c__builtin__
object
p3
NtRp4
(dp5
S'log'
p6
S'bookmarks 16 mar 2007'
p7
sS'author'
p8
S'Eric Rochester <erochest@gmail.com>'
p9
sS'unidiff'
p10
NsS'tags'
p11
NsS'_Changeset__date'
p12
cdatetime
datetime
p13
(S'\x07\xd7\x03\x10\x1164\rY\xf8'
cvcpx.tzinfo
FixedOffset
p14
(I-240
tRp15
tRp16
sS'entries'
p17
(lp18
g1
(cvcpx.changes
ChangesetEntry
p19
g3
NtRp20
(dp21
S'status'
p22
NsS'old_revision'
p23
NsS'name'
p24
Vbookmarks.html
p25
sg10
NsS'new_revision'
p26
NsS'action_kind'
p27
S'UPD'
p28
sS'old_name'
p29
NsbasS'revision'
p30
Verochest@gmail.com-20070316215452-26l72iottkjtwma7
p31
sb.ccopy_reg
_reconstructor
p1
(cvcpx.changes
Changeset
p2
c__builtin__
object
p3
NtRp4
(dp5
S'log'
p6
S'bookmarks 18 mar 2007'
p7
sS'author'
p8
S'erochester <erochester@rochester-lt>'
p9
sS'unidiff'
p10
NsS'tags'
p11
NsS'_Changeset__date'
p12
cdatetime
datetime
p13
(S'\x07\xd7\x03\x12\x17\x14\x13\x0c8\xe8'
cvcpx.tzinfo
FixedOffset
p14
(I-240
tRp15
tRp16
sS'entries'
p17
(lp18
g1
(cvcpx.changes
ChangesetEntry
p19
g3
NtRp20
(dp21
S'status'
p22
NsS'old_revision'
p23
NsS'name'
p24
Vbookmarks.html
p25
sg10
NsS'new_revision'
p26
NsS'action_kind'
p27
S'UPD'
p28
sS'old_name'
p29
NsbasS'revision'
p30
Verochester@rochester-lt-20070319032019-v1up3tgqqyli8kk3
p31
sb.ccopy_reg
_reconstructor
p1
(cvcpx.changes
Changeset
p2
c__builtin__
object
p3
NtRp4
(dp5
S'log'
p6
S'bookmarks 19 mar 2007'
p7
sS'author'
p8
S'Eric Rochester <erochest@gmail.com>'
p9
sS'unidiff'
p10
NsS'tags'
p11
NsS'_Changeset__date'
p12
cdatetime
datetime
p13
(S'\x07\xd7\x03\x13\x11)#\x04\xaf8'
cvcpx.tzinfo
FixedOffset
p14
(I-240
tRp15
tRp16
sS'entries'
p17
(lp18
g1
(cvcpx.changes
ChangesetEntry
p19
g3
NtRp20
(dp21
S'status'
p22
NsS'old_revision'
p23
NsS'name'
p24
Vbookmarks.html
p25
sg10
NsS'new_revision'
p26
NsS'action_kind'
p27
S'UPD'
p28
sS'old_name'
p29
NsbasS'revision'
p30
Verochest@gmail.com-20070319214135-77jvmaonzp2crpo5
p31
sb.ccopy_reg
_reconstructor
p1
(cvcpx.changes
Changeset
p2
c__builtin__
object
p3
NtRp4
(dp5
S'log'
p6
S'bookmarks 20 mar 2007'
p7
sS'author'
p8
S'Eric Rochester <erochest@gmail.com>'
p9
sS'unidiff'
p10
NsS'tags'
p11
NsS'_Changeset__date'
p12
cdatetime
datetime
p13
(S'\x07\xd7\x03\x14\x11\x13-\x0b\xbb\xe8'
cvcpx.tzinfo
FixedOffset
p14
(I-240
tRp15
tRp16
sS'entries'
p17
(lp18
g1
(cvcpx.changes
ChangesetEntry
p19
g3
NtRp20
(dp21
S'status'
p22
NsS'old_revision'
p23
NsS'name'
p24
Vbookmarks.html
p25
sg10
NsS'new_revision'
p26
NsS'action_kind'
p27
S'UPD'
p28
sS'old_name'
p29
NsbasS'revision'
p30
Verochest@gmail.com-20070320211945-5xtlwfwe75k0xk7w
p31
sb.ccopy_reg
_reconstructor
p1
(cvcpx.changes
Changeset
p2
c__builtin__
object
p3
NtRp4
(dp5
S'log'
p6
S'bookmarks 20 mar 2007'
p7
sS'author'
p8
S'erochester <erochester@rochester-lt>'
p9
sS'unidiff'
p10
NsS'tags'
p11
NsS'_Changeset__date'
p12
cdatetime
datetime
p13
(S'\x07\xd7\x03\x14\x16\x0b\x17\x061\xf0'
cvcpx.tzinfo
FixedOffset
p14
(I-240
tRp15
tRp16
sS'entries'
p17
(lp18
g1
(cvcpx.changes
ChangesetEntry
p19
g3
NtRp20
(dp21
S'status'
p22
NsS'old_revision'
p23
NsS'name'
p24
Vbookmarks.html
p25
sg10
NsS'new_revision'
p26
NsS'action_kind'
p27
S'UPD'
p28
sS'old_name'
p29
NsbasS'revision'
p30
Verochester@rochester-lt-20070321021123-h3yxc1k1r5yp6c6b
p31
sb.ccopy_reg
_reconstructor
p1
(cvcpx.changes
Changeset
p2
c__builtin__
object
p3
NtRp4
(dp5
S'log'
p6
S'bookmarks 21 mar 2007'
p7
sS'author'
p8
S'Eric Rochester <erochest@gmail.com>'
p9
sS'unidiff'
p10
NsS'tags'
p11
NsS'_Changeset__date'
p12
cdatetime
datetime
p13
(S'\x07\xd7\x03\x15\x11\x1d8\x0b\xa4x'
cvcpx.tzinfo
FixedOffset
p14
(I-240
tRp15
tRp16
sS'entries'
p17
(lp18
g1
(cvcpx.changes
ChangesetEntry
p19
g3
NtRp20
(dp21
S'status'
p22
NsS'old_revision'
p23
NsS'name'
p24
Vbookmarks.html
p25
sg10
NsS'new_revision'
p26
NsS'action_kind'
p27
S'UPD'
p28
sS'old_name'
p29
NsbasS'revision'
p30
Verochest@gmail.com-20070321212956-lljmsn76vv0coyjp
p31
sb.ccopy_reg
_reconstructor
p1
(cvcpx.changes
Changeset
p2
c__builtin__
object
p3
NtRp4
(dp5
S'log'
p6
S'bookmarks 21 mar 2007'
p7
sS'author'
p8
S'erochester <erochester@rochester-lt>'
p9
sS'unidiff'
p10
NsS'tags'
p11
NsS'_Changeset__date'
p12
cdatetime
datetime
p13
(S'\x07\xd7\x03\x15\x16\x10-\x0c\x96\xa8'
cvcpx.tzinfo
FixedOffset
p14
(I-240
tRp15
tRp16
sS'entries'
p17
(lp18
g1
(cvcpx.changes
ChangesetEntry
p19
g3
NtRp20
(dp21
S'status'
p22
NsS'old_revision'
p23
NsS'name'
p24
Vbookmarks.html
p25
sg10
NsS'new_revision'
p26
NsS'action_kind'
p27
S'UPD'
p28
sS'old_name'
p29
NsbasS'revision'
p30
Verochester@rochester-lt-20070322021645-3uwhh59j879rdjbj
p31
sb.ccopy_reg
_reconstructor
p1
(cvcpx.changes
Changeset
p2
c__builtin__
object
p3
NtRp4
(dp5
S'log'
p6
S'bookmarks 22 mar 2007'
p7
sS'author'
p8
S'Eric Rochester <erochest@gmail.com>'
p9
sS'unidiff'
p10
NsS'tags'
p11
NsS'_Changeset__date'
p12
cdatetime
datetime
p13
(S'\x07\xd7\x03\x16\x1378\x0b\x858'
cvcpx.tzinfo
FixedOffset
p14
(I-240
tRp15
tRp16
sS'entries'
p17
(lp18
g1
(cvcpx.changes
ChangesetEntry
p19
g3
NtRp20
(dp21
S'status'
p22
NsS'old_revision'
p23
NsS'name'
p24
Vbookmarks.html
p25
sg10
NsS'new_revision'
p26
NsS'action_kind'
p27
S'UPD'
p28
sS'old_name'
p29
NsbasS'revision'
p30
Verochest@gmail.com-20070322235556-terywwrbqs5co6l8
p31
sb.ccopy_reg
_reconstructor
p1
(cvcpx.changes
Changeset
p2
c__builtin__
object
p3
NtRp4
(dp5
S'log'
p6
S'bookmarks 24 mar 2007'
p7
sS'author'
p8
S'Eric Rochester <erochest@gmail.com>'
p9
sS'unidiff'
p10
NsS'tags'
p11
NsS'_Changeset__date'
p12
cdatetime
datetime
p13
(S'\x07\xd7\x03\x18\x14\r$\x05;\xd8'
cvcpx.tzinfo
FixedOffset
p14
(I-240
tRp15
tRp16
sS'entries'
p17
(lp18
g1
(cvcpx.changes
ChangesetEntry
p19
g3
NtRp20
(dp21
S'status'
p22
NsS'old_revision'
p23
NsS'name'
p24
Vbookmarks.html
p25
sg10
NsS'new_revision'
p26
NsS'action_kind'
p27
S'UPD'
p28
sS'old_name'
p29
NsbasS'revision'
p30
Verochest@gmail.com-20070325001336-v5oa48gxna94ipmz
p31
sb.ccopy_reg
_reconstructor
p1
(cvcpx.changes
Changeset
p2
c__builtin__
object
p3
NtRp4
(dp5
S'log'
p6
S'bookmarks 24 mar 2007'
p7
sS'author'
p8
S'erochester <erochester@rochester-lt>'
p9
sS'unidiff'
p10
NsS'tags'
p11
NsS'_Changeset__date'
p12
cdatetime
datetime
p13
(S'\x07\xd7\x03\x18\x158!\t\xdbp'
cvcpx.tzinfo
FixedOffset
p14
(I-240
tRp15
tRp16
sS'entries'
p17
(lp18
g1
(cvcpx.changes
ChangesetEntry
p19
g3
NtRp20
(dp21
S'status'
p22
NsS'old_revision'
p23
NsS'name'
p24
Vbookmarks.html
p25
sg10
NsS'new_revision'
p26
NsS'action_kind'
p27
S'UPD'
p28
sS'old_name'
p29
NsbasS'revision'
p30
Verochester@rochester-lt-20070325015633-5i4jq7kjh253kz7r
p31
sb.ccopy_reg
_reconstructor
p1
(cvcpx.changes
Changeset
p2
c__builtin__
object
p3
NtRp4
(dp5
S'log'
p6
S'bookmarks 25 mar 2007'
p7
sS'author'
p8
S'Eric Rochester <erochest@gmail.com>'
p9
sS'unidiff'
p10
NsS'tags'
p11
NsS'_Changeset__date'
p12
cdatetime
datetime
p13
(S'\x07\xd7\x03\x19\x11\r!\x06l\x88'
cvcpx.tzinfo
FixedOffset
p14
(I-240
tRp15
tRp16
sS'entries'
p17
(lp18
g1
(cvcpx.changes
ChangesetEntry
p19
g3
NtRp20
(dp21
S'status'
p22
NsS'old_revision'
p23
NsS'name'
p24
Vbookmarks.html
p25
sg10
NsS'new_revision'
p26
NsS'action_kind'
p27
S'UPD'
p28
sS'old_name'
p29
NsbasS'revision'
p30
Verochest@gmail.com-20070325211333-c3uahbwp80e46y00
p31
sb.ccopy_reg
_reconstructor
p1
(cvcpx.changes
Changeset
p2
c__builtin__
object
p3
NtRp4
(dp5
S'log'
p6
S'bookmarks 25 mar 2007'
p7
sS'author'
p8
S'erochester <erochester@rochester-lt>'
p9
sS'unidiff'
p10
NsS'tags'
p11
NsS'_Changeset__date'
p12
cdatetime
datetime
p13
(S'\x07\xd7\x03\x19\x15\x10\x12\x02\x98\x10'
cvcpx.tzinfo
FixedOffset
p14
(I-240
tRp15
tRp16
sS'entries'
p17
(lp18
g1
(cvcpx.changes
ChangesetEntry
p19
g3
NtRp20
(dp21
S'status'
p22
NsS'old_revision'
p23
NsS'name'
p24
Vbookmarks.html
p25
sg10
NsS'new_revision'
p26
NsS'action_kind'
p27
S'UPD'
p28
sS'old_name'
p29
NsbasS'revision'
p30
Verochester@rochester-lt-20070326011618-8kcliwvwez67acqh
p31
sb.ccopy_reg
_reconstructor
p1
(cvcpx.changes
Changeset
p2
c__builtin__
object
p3
NtRp4
(dp5
S'log'
p6
S'bookmarks 26 mar 2007'
p7
sS'author'
p8
S'Eric Rochester <erochest@gmail.com>'
p9
sS'unidiff'
p10
NsS'tags'
p11
NsS'_Changeset__date'
p12
cdatetime
datetime
p13
(S'\x07\xd7\x03\x1a\x1171\x05\xf3p'
cvcpx.tzinfo
FixedOffset
p14
(I-240
tRp15
tRp16
sS'entries'
p17
(lp18
g1
(cvcpx.changes
ChangesetEntry
p19
g3
NtRp20
(dp21
S'status'
p22
NsS'old_revision'
p23
NsS'name'
p24
Vbookmarks.html
p25
sg10
NsS'new_revision'
p26
NsS'action_kind'
p27
S'UPD'
p28
sS'old_name'
p29
NsbasS'revision'
p30
Verochest@gmail.com-20070326215549-ovyeqt5flmhjmw2f
p31
sb.ccopy_reg
_reconstructor
p1
(cvcpx.changes
Changeset
p2
c__builtin__
object
p3
NtRp4
(dp5
S'log'
p6
S'bookmarks 27 mar 2007'
p7
sS'author'
p8
S'Eric Rochester <erochest@gmail.com>'
p9
sS'unidiff'
p10
NsS'tags'
p11
NsS'_Changeset__date'
p12
cdatetime
datetime
p13
(S'\x07\xd7\x03\x1b\x116)\x0c\xa2`'
cvcpx.tzinfo
FixedOffset
p14
(I-240
tRp15
tRp16
sS'entries'
p17
(lp18
g1
(cvcpx.changes
ChangesetEntry
p19
g3
NtRp20
(dp21
S'status'
p22
NsS'old_revision'
p23
NsS'name'
p24
Vbookmarks.html
p25
sg10
NsS'new_revision'
p26
NsS'action_kind'
p27
S'UPD'
p28
sS'old_name'
p29
NsbasS'revision'
p30
Verochest@gmail.com-20070327215441-7s0ajc8cwycf6rxq
p31
sb.ccopy_reg
_reconstructor
p1
(cvcpx.changes
Changeset
p2
c__builtin__
object
p3
NtRp4
(dp5
S'log'
p6
S'bookmarks 27 mar 2007'
p7
sS'author'
p8
S'erochester <erochester@rochester-lt>'
p9
sS'unidiff'
p10
NsS'tags'
p11
NsS'_Changeset__date'
p12
cdatetime
datetime
p13
(S'\x07\xd7\x03\x1b\x15($\x05\xc4\x90'
cvcpx.tzinfo
FixedOffset
p14
(I-240
tRp15
tRp16
sS'entries'
p17
(lp18
g1
(cvcpx.changes
ChangesetEntry
p19
g3
NtRp20
(dp21
S'status'
p22
NsS'old_revision'
p23
NsS'name'
p24
Vbookmarks.html
p25
sg10
NsS'new_revision'
p26
NsS'action_kind'
p27
S'UPD'
p28
sS'old_name'
p29
NsbasS'revision'
p30
Verochester@rochester-lt-20070328014036-k5dkchi1r4qztg7h
p31
sb.ccopy_reg
_reconstructor
p1
(cvcpx.changes
Changeset
p2
c__builtin__
object
p3
NtRp4
(dp5
S'log'
p6
S'bookmarks 28 mar 2007'
p7
sS'author'
p8
S'Eric Rochester <erochest@gmail.com>'
p9
sS'unidiff'
p10
NsS'tags'
p11
NsS'_Changeset__date'
p12
cdatetime
datetime
p13
(S'\x07\xd7\x03\x1c\x11 \x1f\x08T\xd0'
cvcpx.tzinfo
FixedOffset
p14
(I-240
tRp15
tRp16
sS'entries'
p17
(lp18
g1
(cvcpx.changes
ChangesetEntry
p19
g3
NtRp20
(dp21
S'status'
p22
NsS'old_revision'
p23
NsS'name'
p24
V_vimrc
p25
sg10
NsS'new_revision'
p26
NsS'action_kind'
p27
S'UPD'
p28
sS'old_name'
p29
Nsbag1
(g19
g3
NtRp30
(dp31
g22
Nsg23
Nsg24
Vbookmarks.html
p32
sg10
Nsg26
Nsg27
g28
sg29
NsbasS'revision'
p33
Verochest@gmail.com-20070328213231-g9qhssq0pn19delp
p34
sb.ccopy_reg
_reconstructor
p1
(cvcpx.changes
Changeset
p2
c__builtin__
object
p3
NtRp4
(dp5
S'log'
p6
S'29 mar 2007'
p7
sS'author'
p8
S'Eric Rochester <erochest@gmail.com>'
p9
sS'unidiff'
p10
NsS'tags'
p11
NsS'_Changeset__date'
p12
cdatetime
datetime
p13
(S'\x07\xd7\x03\x1d\x11:8\x06\xab\x08'
cvcpx.tzinfo
FixedOffset
p14
(I-240
tRp15
tRp16
sS'entries'
p17
(lp18
g1
(cvcpx.changes
ChangesetEntry
p19
g3
NtRp20
(dp21
S'status'
p22
NsS'old_revision'
p23
NsS'name'
p24
V_vimrc
p25
sg10
NsS'new_revision'
p26
NsS'action_kind'
p27
S'UPD'
p28
sS'old_name'
p29
Nsbag1
(g19
g3
NtRp30
(dp31
g22
Nsg23
Nsg24
Vbookmarks.html
p32
sg10
Nsg26
Nsg27
g28
sg29
NsbasS'revision'
p33
Verochest@gmail.com-20070329215856-65ywibpyvseah2ug
p34
sb.ccopy_reg
_reconstructor
p1
(cvcpx.changes
Changeset
p2
c__builtin__
object
p3
NtRp4
(dp5
S'log'
p6
S'bookmarks 30 mar 2007'
p7
sS'author'
p8
S'Eric Rochester <erochest@gmail.com>'
p9
sS'unidiff'
p10
NsS'tags'
p11
NsS'_Changeset__date'
p12
cdatetime
datetime
p13
(S'\x07\xd7\x03\x1e\x11\x1b;\x03\x18\xf8'
cvcpx.tzinfo
FixedOffset
p14
(I-240
tRp15
tRp16
sS'entries'
p17
(lp18
g1
(cvcpx.changes
ChangesetEntry
p19
g3
NtRp20
(dp21
S'status'
p22
NsS'old_revision'
p23
NsS'name'
p24
Vbookmarks.html
p25
sg10
NsS'new_revision'
p26
NsS'action_kind'
p27
S'UPD'
p28
sS'old_name'
p29
NsbasS'revision'
p30
Verochest@gmail.com-20070330212759-o34w6wewfdi5j8li
p31
sb.ccopy_reg
_reconstructor
p1
(cvcpx.changes
Changeset
p2
c__builtin__
object
p3
NtRp4
(dp5
S'log'
p6
S'bookmarks 1 apr 2007'
p7
sS'author'
p8
S'erochester <erochester@ROCHESTER-LT>'
p9
sS'unidiff'
p10
NsS'tags'
p11
NsS'_Changeset__date'
p12
cdatetime
datetime
p13
(S'\x07\xd7\x04\x01\x159\n\r\xa8\x18'
cvcpx.tzinfo
FixedOffset
p14
(I-240
tRp15
tRp16
sS'entries'
p17
(lp18
g1
(cvcpx.changes
ChangesetEntry
p19
g3
NtRp20
(dp21
S'status'
p22
NsS'old_revision'
p23
NsS'name'
p24
Vbookmarks.html
p25
sg10
NsS'new_revision'
p26
NsS'action_kind'
p27
S'UPD'
p28
sS'old_name'
p29
NsbasS'revision'
p30
Verochester@rochester-lt-20070402015710-55ygf9rkgcc7zlwm
p31
sb.ccopy_reg
_reconstructor
p1
(cvcpx.changes
Changeset
p2
c__builtin__
object
p3
NtRp4
(dp5
S'log'
p6
S'bookmarks mid 2 apr 2007'
p7
sS'author'
p8
S'Eric Rochester <erochest@gmail.com>'
p9
sS'unidiff'
p10
NsS'tags'
p11
NsS'_Changeset__date'
p12
cdatetime
datetime
p13
(S'\x07\xd7\x04\x02\x0c3\x1c\x0b\xacH'
cvcpx.tzinfo
FixedOffset
p14
(I-240
tRp15
tRp16
sS'entries'
p17
(lp18
g1
(cvcpx.changes
ChangesetEntry
p19
g3
NtRp20
(dp21
S'status'
p22
NsS'old_revision'
p23
NsS'name'
p24
Vbookmarks.html
p25
sg10
NsS'new_revision'
p26
NsS'action_kind'
p27
S'UPD'
p28
sS'old_name'
p29
NsbasS'revision'
p30
Verochest@gmail.com-20070402165128-z4ouv5c711sdx861
p31
sb.ccopy_reg
_reconstructor
p1
(cvcpx.changes
Changeset
p2
c__builtin__
object
p3
NtRp4
(dp5
S'log'
p6
S'bookmarks 2 apr 2007'
p7
sS'author'
p8
S'erochester <erochester@ROCHESTER-LT>'
p9
sS'unidiff'
p10
NsS'tags'
p11
NsS'_Changeset__date'
p12
cdatetime
datetime
p13
(S'\x07\xd7\x04\x02\x15\x04$\x0bVX'
cvcpx.tzinfo
FixedOffset
p14
(I-240
tRp15
tRp16
sS'entries'
p17
(lp18
g1
(cvcpx.changes
ChangesetEntry
p19
g3
NtRp20
(dp21
S'status'
p22
NsS'old_revision'
p23
NsS'name'
p24
Vbookmarks.html
p25
sg10
NsS'new_revision'
p26
NsS'action_kind'
p27
S'UPD'
p28
sS'old_name'
p29
NsbasS'revision'
p30
Verochester@rochester-lt-20070403010436-6tofewxxfpllfn9a
p31
sb.ccopy_reg
_reconstructor
p1
(cvcpx.changes
Changeset
p2
c__builtin__
object
p3
NtRp4
(dp5
S'log'
p6
S'bookmarks 3 apr 2007'
p7
sS'author'
p8
S'Eric Rochester <erochest@gmail.com>'
p9
sS'unidiff'
p10
NsS'tags'
p11
NsS'_Changeset__date'
p12
cdatetime
datetime
p13
(S'\x07\xd7\x04\x03\x11*2\n\xf4\xb0'
cvcpx.tzinfo
FixedOffset
p14
(I-240
tRp15
tRp16
sS'entries'
p17
(lp18
g1
(cvcpx.changes
ChangesetEntry
p19
g3
NtRp20
(dp21
S'status'
p22
NsS'old_revision'
p23
NsS'name'
p24
Vbookmarks.html
p25
sg10
NsS'new_revision'
p26
NsS'action_kind'
p27
S'UPD'
p28
sS'old_name'
p29
NsbasS'revision'
p30
Verochest@gmail.com-20070403214250-wdzr51b5ixotlm8h
p31
sb.ccopy_reg
_reconstructor
p1
(cvcpx.changes
Changeset
p2
c__builtin__
object
p3
NtRp4
(dp5
S'log'
p6
S'bookmarks 3 apr 2007'
p7
sS'author'
p8
S'erochester <erochester@ROCHESTER-LT>'
p9
sS'unidiff'
p10
NsS'tags'
p11
NsS'_Changeset__date'
p12
cdatetime
datetime
p13
(S'\x07\xd7\x04\x03\x16\r\r\x08\xe5X'
cvcpx.tzinfo
FixedOffset
p14
(I-240
tRp15
tRp16
sS'entries'
p17
(lp18
g1
(cvcpx.changes
ChangesetEntry
p19
g3
NtRp20
(dp21
S'status'
p22
NsS'old_revision'
p23
NsS'name'
p24
Vbookmarks.html
p25
sg10
NsS'new_revision'
p26
NsS'action_kind'
p27
S'UPD'
p28
sS'old_name'
p29
NsbasS'revision'
p30
Verochester@rochester-lt-20070404021313-d4r3fa68g82hzhf1
p31
sb.ccopy_reg
_reconstructor
p1
(cvcpx.changes
Changeset
p2
c__builtin__
object
p3
NtRp4
(dp5
S'log'
p6
S'bookmarks 4 apr 2007'
p7
sS'author'
p8
S'Eric Rochester <erochest@gmail.com>'
p9
sS'unidiff'
p10
NsS'tags'
p11
NsS'_Changeset__date'
p12
cdatetime
datetime
p13
(S'\x07\xd7\x04\x04\x12\x028\x03\x92\x10'
cvcpx.tzinfo
FixedOffset
p14
(I-240
tRp15
tRp16
sS'entries'
p17
(lp18
g1
(cvcpx.changes
ChangesetEntry
p19
g3
NtRp20
(dp21
S'status'
p22
NsS'old_revision'
p23
NsS'name'
p24
Vbookmarks.html
p25
sg10
NsS'new_revision'
p26
NsS'action_kind'
p27
S'UPD'
p28
sS'old_name'
p29
NsbasS'revision'
p30
Verochest@gmail.com-20070404220256-r306qqg3pot38fnf
p31
sb.ccopy_reg
_reconstructor
p1
(cvcpx.changes
Changeset
p2
c__builtin__
object
p3
NtRp4
(dp5
S'log'
p6
S'bookmarks 6 apr 2007'
p7
sS'author'
p8
S'Eric Rochester <erochest@gmail.com>'
p9
sS'unidiff'
p10
NsS'tags'
p11
NsS'_Changeset__date'
p12
cdatetime
datetime
p13
(S'\x07\xd7\x04\x06\x12\x0c(\x01\xe8H'
cvcpx.tzinfo
FixedOffset
p14
(I-240
tRp15
tRp16
sS'entries'
p17
(lp18
g1
(cvcpx.changes
ChangesetEntry
p19
g3
NtRp20
(dp21
S'status'
p22
NsS'old_revision'
p23
NsS'name'
p24
Vbookmarks.html
p25
sg10
NsS'new_revision'
p26
NsS'action_kind'
p27
S'UPD'
p28
sS'old_name'
p29
NsbasS'revision'
p30
Verochest@gmail.com-20070406221240-k449u19nrcf0awpb
p31
sb.ccopy_reg
_reconstructor
p1
(cvcpx.changes
Changeset
p2
c__builtin__
object
p3
NtRp4
(dp5
S'log'
p6
S'bookmarks 7 apr 2007'
p7
sS'author'
p8
S'erochester <erochester@ROCHESTER-LT>'
p9
sS'unidiff'
p10
NsS'tags'
p11
NsS'_Changeset__date'
p12
cdatetime
datetime
p13
(S'\x07\xd7\x04\x07\x139.\x0e\x82\xd8'
cvcpx.tzinfo
FixedOffset
p14
(I-240
tRp15
tRp16
sS'entries'
p17
(lp18
g1
(cvcpx.changes
ChangesetEntry
p19
g3
NtRp20
(dp21
S'status'
p22
NsS'old_revision'
p23
NsS'name'
p24
Vbookmarks.html
p25
sg10
NsS'new_revision'
p26
NsS'action_kind'
p27
S'UPD'
p28
sS'old_name'
p29
NsbasS'revision'
p30
Verochester@rochester-lt-20070407235746-jd8a1qkqms6m36j2
p31
sb.ccopy_reg
_reconstructor
p1
(cvcpx.changes
Changeset
p2
c__builtin__
object
p3
NtRp4
(dp5
S'log'
p6
S'bookmarks 9 apr 2007'
p7
sS'author'
p8
S'Eric Rochester <erochest@gmail.com>'
p9
sS'unidiff'
p10
NsS'tags'
p11
NsS'_Changeset__date'
p12
cdatetime
datetime
p13
(S'\x07\xd7\x04\t\x118&\x01\xe8H'
cvcpx.tzinfo
FixedOffset
p14
(I-240
tRp15
tRp16
sS'entries'
p17
(lp18
g1
(cvcpx.changes
ChangesetEntry
p19
g3
NtRp20
(dp21
S'status'
p22
NsS'old_revision'
p23
NsS'name'
p24
Vbookmarks.html
p25
sg10
NsS'new_revision'
p26
NsS'action_kind'
p27
S'UPD'
p28
sS'old_name'
p29
NsbasS'revision'
p30
Verochest@gmail.com-20070409215638-l5ambf3fajsfhf77
p31
sb.